
build/a3700_z/debug/bl31/bl31.elf:     file format elf64-littleaarch64
build/a3700_z/debug/bl31/bl31.elf
architecture: aarch64, flags 0x00000112:
EXEC_P, HAS_SYMS, D_PAGED
start address 0x0000000004023000

Program Header:
    LOAD off    0x0000000000000000 vaddr 0x0000000004020000 paddr 0x0000000004020000 align 2**16
         filesz 0x000000000000a2c8 memsz 0x000000000000b340 flags rwx
   STACK off    0x0000000000000000 vaddr 0x0000000000000000 paddr 0x0000000000000000 align 2**4
         filesz 0x0000000000000000 memsz 0x0000000000000000 flags rw-
private flags = 0:

Sections:
Idx Name          Size      VMA               LMA               File off  Algn
  0 ro            00007000  0000000004023000  0000000004023000  00003000  2**11
                  CONTENTS, ALLOC, LOAD, READONLY, CODE
  1 ._secure.text 000002ac  000000000402a000  000000000402a000  0000a000  2**4
                  CONTENTS, ALLOC, LOAD, READONLY, CODE
  2 .data         0000001c  000000000402a2ac  000000000402a2ac  0000a2ac  2**3
                  CONTENTS, ALLOC, LOAD, DATA
  3 stacks        00000800  000000000402a300  000000000402a300  0000a2c8  2**6
                  ALLOC
  4 .bss          00000840  000000000402ab00  000000000402ab00  0000a2c8  2**6
                  ALLOC
  5 .debug_info   000136f5  0000000000000000  0000000000000000  0000a2c8  2**0
                  CONTENTS, READONLY, DEBUGGING
  6 .debug_abbrev 00004688  0000000000000000  0000000000000000  0001d9bd  2**0
                  CONTENTS, READONLY, DEBUGGING
  7 .debug_aranges 00001ab0  0000000000000000  0000000000000000  00022050  2**4
                  CONTENTS, READONLY, DEBUGGING
  8 .debug_line   00006286  0000000000000000  0000000000000000  00023b00  2**0
                  CONTENTS, READONLY, DEBUGGING
  9 .debug_str    00003169  0000000000000000  0000000000000000  00029d86  2**0
                  CONTENTS, READONLY, DEBUGGING
 10 .comment      0000003c  0000000000000000  0000000000000000  0002ceef  2**0
                  CONTENTS, READONLY
 11 .debug_loc    000131e0  0000000000000000  0000000000000000  0002cf2b  2**0
                  CONTENTS, READONLY, DEBUGGING
 12 .debug_ranges 00002180  0000000000000000  0000000000000000  00040110  2**4
                  CONTENTS, READONLY, DEBUGGING
 13 .debug_frame  000023e0  0000000000000000  0000000000000000  00042290  2**3
                  CONTENTS, READONLY, DEBUGGING
SYMBOL TABLE:
0000000004023000 l    d  ro	0000000000000000 ro
000000000402a000 l    d  ._secure.text	0000000000000000 ._secure.text
000000000402a2ac l    d  .data	0000000000000000 .data
000000000402a300 l    d  stacks	0000000000000000 stacks
000000000402ab00 l    d  .bss	0000000000000000 .bss
0000000000000000 l    d  .debug_info	0000000000000000 .debug_info
0000000000000000 l    d  .debug_abbrev	0000000000000000 .debug_abbrev
0000000000000000 l    d  .debug_aranges	0000000000000000 .debug_aranges
0000000000000000 l    d  .debug_line	0000000000000000 .debug_line
0000000000000000 l    d  .debug_str	0000000000000000 .debug_str
0000000000000000 l    d  .comment	0000000000000000 .comment
0000000000000000 l    d  .debug_loc	0000000000000000 .debug_loc
0000000000000000 l    d  .debug_ranges	0000000000000000 .debug_ranges
0000000000000000 l    d  .debug_frame	0000000000000000 .debug_frame
0000000000000000 l    df *ABS*	0000000000000000 ./build/a3700_z/debug/bl31/bl31_entrypoint.o
0000000000000000 l    df *ABS*	0000000000000000 plat_pm.c
0000000004023148 l     F ro	0000000000000018 a3700_system_off
0000000004023190 l     F ro	0000000000000010 a3700_system_reset
0000000000000000 l    df *ABS*	0000000000000000 plat_topology.c
0000000000000000 l    df *ABS*	0000000000000000 plat_bl31_setup.c
0000000000000000 l    df *ABS*	0000000000000000 sys_info.c
0000000000000000 l    df *ABS*	0000000000000000 marvell_gicv3.c
0000000000000000 l    df *ABS*	0000000000000000 plat_delay_timer.c
00000000040232dc l     F ro	000000000000000c plat_get_timer_value
00000000040277c0 l     O ro	0000000000000010 plat_timer_ops
0000000000000000 l    df *ABS*	0000000000000000 delay_timer.c
00000000040278b0 l     O ro	0000000000000007 __func__.1257
00000000040278b8 l     O ro	000000000000000b __func__.1270
000000000402ab00 l     O .bss	0000000000000008 ops
0000000000000000 l    df *ABS*	0000000000000000 a3700_i2c.c
00000000040233f4 l     F ro	0000000000000070 i2c_isr_set_cleared
0000000004023464 l     F ro	0000000000000070 i2c_reset
000000000402ab08 l     O .bss	0000000000000008 base
0000000000000000 l    df *ABS*	0000000000000000 gic_common.c
0000000000000000 l    df *ABS*	0000000000000000 gicv3_main.c
00000000040278c8 l     O ro	0000000000000021 __func__.2165
000000000402ab10 l     O .bss	0000000000000008 driver_data
00000000040278f0 l     O ro	0000000000000013 __func__.2144
0000000004027c08 l     O ro	0000000000000012 __func__.2135
0000000004027c20 l     O ro	0000000000000012 __func__.2139
0000000004027c38 l     O ro	0000000000000013 __func__.2151
0000000000000000 l    df *ABS*	0000000000000000 gicv3_helpers.c
0000000004027c50 l     O ro	000000000000001e __func__.2213
0000000004027c70 l     O ro	000000000000001f __func__.2280
0000000004027c90 l     O ro	000000000000001f __func__.2233
0000000004027d78 l     O ro	000000000000001c __func__.2259
0000000000000000 l    df *ABS*	0000000000000000 plat_gicv3.c
0000000004027d98 l     O ro	0000000000000004 CSWTCH.6
0000000004027e28 l     O ro	0000000000000023 __func__.2428
0000000000000000 l    df *ABS*	0000000000000000 marvell_bl31_setup.c
000000000402ab18 l     O .bss	0000000000000058 bl32_image_ep_info
000000000402ab70 l     O .bss	0000000000000058 bl33_image_ep_info
0000000004027f28 l     O ro	0000000000000022 __func__.2322
0000000004027f50 l     O ro	0000000000000021 __func__.2317
0000000000000000 l    df *ABS*	0000000000000000 marvell_pm.c
0000000000000000 l    df *ABS*	0000000000000000 marvell_topology.c
0000000000000000 l    df *ABS*	0000000000000000 plat_psci_common.c
0000000004027f78 l     O ro	000000000000001a __func__.1552
0000000000000000 l    df *ABS*	0000000000000000 bl31_main.c
0000000004027fc0 l     O ro	000000000000001e __func__.2394
000000000402abc8 l     O .bss	0000000000000008 bl32_init
000000000402a2bc l     O .data	0000000000000004 next_image_type
0000000000000000 l    df *ABS*	0000000000000000 runtime_svc.c
000000000402abd0 l     O .bss	0000000000000008 rt_svc_descs
0000000000000000 l    df *ABS*	0000000000000000 interrupt_mgmt.c
000000000402abd8 l     O .bss	0000000000000048 intr_type_descs
00000000040280e8 l     O ro	000000000000001f __func__.1643
0000000000000000 l    df *ABS*	0000000000000000 bl31_arch_setup.c
0000000000000000 l    df *ABS*	0000000000000000 bl31_context_mgmt.c
0000000004028108 l     O ro	000000000000000f __func__.2327
0000000004028118 l     O ro	0000000000000018 __func__.2337
0000000004028130 l     O ro	0000000000000018 __func__.2343
0000000000000000 l    df *ABS*	0000000000000000 context_mgmt.c
00000000040249c8 l     F ro	000000000000011c cm_init_context_common
0000000004028200 l     O ro	0000000000000017 __func__.2362
0000000004028218 l     O ro	0000000000000014 __func__.1988
0000000004028230 l     O ro	0000000000000014 __func__.2379
0000000000000000 l    df *ABS*	0000000000000000 std_svc_setup.c
0000000004024c48 l     F ro	0000000000000004 std_svc_setup
0000000004028fc0 l     O ro	0000000000000020 __svc_desc_std_svc
0000000004028250 l     O ro	0000000000000010 arm_svc_uid
0000000000000000 l    df *ABS*	0000000000000000 psci_off.c
00000000040282a8 l     O ro	0000000000000010 __func__.2379
0000000000000000 l    df *ABS*	0000000000000000 psci_on.c
0000000004024de8 l     F ro	0000000000000038 psci_set_aff_info_state_by_idx
00000000040282b8 l     O ro	0000000000000016 __func__.2453
00000000040283b8 l     O ro	0000000000000012 __func__.2465
00000000040283d0 l     O ro	0000000000000013 __func__.2471
0000000000000000 l    df *ABS*	0000000000000000 psci_suspend.c
00000000040283e8 l     O ro	0000000000000018 __func__.2464
0000000004028400 l     O ro	0000000000000017 __func__.2456
0000000000000000 l    df *ABS*	0000000000000000 psci_common.c
0000000004025284 l     F ro	0000000000000028 psci_set_req_local_pwr_state.part.0
0000000004028528 l     O ro	000000000000001a __func__.2461
00000000040286a8 l     O ro	0000000000000020 __func__.2465
00000000040286c8 l     O ro	0000000000000014 __func__.2471
000000000402ac20 l     O .bss	0000000000000002 psci_req_local_pwr_states
00000000040286e0 l     O ro	0000000000000016 __func__.2635
00000000040286f8 l     O ro	000000000000001d __func__.2485
0000000000000000 l    df *ABS*	0000000000000000 psci_main.c
0000000004028738 l     O ro	0000000000000011 __func__.2437
0000000004028750 l     O ro	0000000000000014 __func__.2445
0000000004028768 l     O ro	000000000000000d __func__.2451
0000000004028778 l     O ro	000000000000000d __func__.2462
0000000000000000 l    df *ABS*	0000000000000000 psci_setup.c
0000000004028920 l     O ro	000000000000001b __func__.2437
0000000004028940 l     O ro	000000000000000b __func__.2451
000000000402ac30 l     O .bss	0000000000000420 psci_ns_context
0000000000000000 l    df *ABS*	0000000000000000 psci_system_off.c
00000000040289d0 l     O ro	0000000000000010 __func__.2334
00000000040289e0 l     O ro	0000000000000012 __func__.2338
0000000000000000 l    df *ABS*	0000000000000000 bakery_lock_normal.c
0000000004028a58 l     O ro	0000000000000012 __func__.2279
0000000004028a70 l     O ro	0000000000000010 __func__.2296
0000000004028af8 l     O ro	0000000000000014 __func__.2309
0000000000000000 l    df *ABS*	0000000000000000 bl_common.c
0000000000000000 l    df *ABS*	0000000000000000 tf_printf.c
00000000040265ac l     F ro	0000000000000074 unsigned_num_print
0000000000000000 l    df *ABS*	0000000000000000 std.c
0000000000000000 l    df *ABS*	0000000000000000 xlat_tables.c
000000000402b050 l     O .bss	0000000000000008 tcr_ps_bits
0000000004028c98 l     O ro	000000000000000f __func__.2030
000000000402b060 l     O .bss	0000000000000020 l1_xlation_table
0000000000000000 l    df *ABS*	0000000000000000 plat_common.c
0000000000000000 l    df *ABS*	0000000000000000 ./build/a3700_z/debug/bl31/cortex_a53.o
0000000000000000 l       *ABS*	0000000000000000 CPU_MIDR
0000000000000008 l       *ABS*	0000000000000000 CPU_RESET_FUNC
0000000000000010 l       *ABS*	0000000000000000 CPU_PWR_DWN_CORE
0000000000000018 l       *ABS*	0000000000000000 CPU_PWR_DWN_CLUSTER
0000000000000020 l       *ABS*	0000000000000000 CPU_REG_DUMP
0000000000000028 l       *ABS*	0000000000000000 CPU_OPS_SIZE
00000000040269e4 l     F ro	0000000000000014 cortex_a53_disable_dcache
00000000040269f8 l     F ro	0000000000000018 cortex_a53_disable_smp
0000000004026a10 l     F ro	000000000000002c cortex_a53_reset_func
0000000004026a34 l       ro	0000000000000000 skip_smp_setup
0000000004026a3c l     F ro	0000000000000018 cortex_a53_core_pwr_dwn
0000000004026a54 l     F ro	0000000000000024 cortex_a53_cluster_pwr_dwn
0000000004028ca7 l       ro	0000000000000000 cortex_a53_regs
0000000004026a78 l     F ro	000000000000000c cortex_a53_cpu_reg_dump
0000000000000000 l    df *ABS*	0000000000000000 ./build/a3700_z/debug/bl31/platform_mp_stack.o
000000000402a300 l       stacks	0000000000000000 platform_normal_stacks
0000000000000000 l    df *ABS*	0000000000000000 ./build/a3700_z/debug/bl31/cpu_data.o
0000000000000000 l    df *ABS*	0000000000000000 ./build/a3700_z/debug/bl31/runtime_exceptions.o
0000000004029800 l       ro	0000000000000000 sync_exception_sp_el0
0000000004029880 l       ro	0000000000000000 irq_sp_el0
0000000004029900 l       ro	0000000000000000 fiq_sp_el0
0000000004029980 l       ro	0000000000000000 serror_sp_el0
0000000004029a00 l       ro	0000000000000000 sync_exception_sp_elx
0000000004029a80 l       ro	0000000000000000 irq_sp_elx
0000000004029b00 l       ro	0000000000000000 fiq_sp_elx
0000000004029b80 l       ro	0000000000000000 serror_sp_elx
0000000004029c00 l       ro	0000000000000000 sync_exception_aarch64
0000000004026ad8 l       ro	0000000000000000 smc_handler32
0000000004026af0 l       ro	0000000000000000 smc_handler64
0000000004029c80 l       ro	0000000000000000 irq_aarch64
0000000004029cd8 l       ro	0000000000000000 interrupt_exit_irq_aarch64
0000000004029d00 l       ro	0000000000000000 fiq_aarch64
0000000004029d58 l       ro	0000000000000000 interrupt_exit_fiq_aarch64
0000000004029d80 l       ro	0000000000000000 serror_aarch64
0000000004029e00 l       ro	0000000000000000 sync_exception_aarch32
0000000004029e80 l       ro	0000000000000000 irq_aarch32
0000000004029ed8 l       ro	0000000000000000 interrupt_exit_irq_aarch32
0000000004029f00 l       ro	0000000000000000 fiq_aarch32
0000000004029f58 l       ro	0000000000000000 interrupt_exit_fiq_aarch32
0000000004029f80 l       ro	0000000000000000 serror_aarch32
0000000004026ad8 l     F ro	00000000000000b8 smc_handler
0000000004026b7c l       ro	0000000000000000 smc_prohibited
0000000004026b74 l       ro	0000000000000000 smc_unknown
0000000004026b88 l       ro	0000000000000000 rt_svc_fw_critical_error
0000000000000000 l    df *ABS*	0000000000000000 ./build/a3700_z/debug/bl31/crash_reporting.o
0000000004028cb5 l       ro	0000000000000000 print_spacer
0000000004028cbc l       ro	0000000000000000 gp_regs
0000000004028d2b l       ro	0000000000000000 el3_sys_regs
0000000004028d88 l       ro	0000000000000000 non_el3_sys_regs
0000000004028eee l       ro	0000000000000000 panic_msg
0000000004028f07 l       ro	0000000000000000 excpt_msg
0000000004028f2d l       ro	0000000000000000 intr_excpt_msg
0000000004026b90 l     F ro	0000000000000008 print_newline
0000000004026b98 l     F ro	000000000000004c size_controlled_print
0000000004026ba0 l       ro	0000000000000000 test_size_list
0000000004026bdc l       ro	0000000000000000 exit_size_print
0000000004026be4 l     F ro	0000000000000018 str_in_crash_buf_print
0000000004026c78 l     F ro	0000000000000158 do_crash_reporting
0000000004026dd0 l     F ro	0000000000000004 crash_panic
0000000000000000 l    df *ABS*	0000000000000000 ./build/a3700_z/debug/bl31/context.o
0000000000000000 l    df *ABS*	0000000000000000 ./build/a3700_z/debug/bl31/cpu_helpers.o
0000000000000000 l       *ABS*	0000000000000000 CPU_MIDR
0000000000000008 l       *ABS*	0000000000000000 CPU_RESET_FUNC
0000000000000010 l       *ABS*	0000000000000000 CPU_PWR_DWN_CORE
0000000000000018 l       *ABS*	0000000000000000 CPU_PWR_DWN_CLUSTER
0000000000000020 l       *ABS*	0000000000000000 CPU_REG_DUMP
0000000000000028 l       *ABS*	0000000000000000 CPU_OPS_SIZE
0000000004027048 l       ro	0000000000000000 error_exit
0000000000000000 l    df *ABS*	0000000000000000 ./build/a3700_z/debug/bl31/spinlock.o
0000000004027054 l       ro	0000000000000000 l1
0000000004027058 l       ro	0000000000000000 l2
0000000000000000 l    df *ABS*	0000000000000000 ./build/a3700_z/debug/bl31/psci_entry.o
00000000040270d4 l       ro	0000000000000000 wfi_spill
0000000000000000 l    df *ABS*	0000000000000000 ./build/a3700_z/debug/bl31/psci_helpers.o
00000000040270f0 l       ro	0000000000000000 do_core_pwr_dwn
00000000040270f4 l       ro	0000000000000000 do_stack_maintenance
0000000000000000 l    df *ABS*	0000000000000000 ./build/a3700_z/debug/bl31/debug.o
0000000004028f7c l       ro	0000000000000000 assert_msg1
0000000004028f8a l       ro	0000000000000000 assert_msg2
00000000040271ac l       ro	0000000000000000 _assert_loop
0000000004027194 l       ro	0000000000000000 dec_print_loop
0000000004028f91 l       ro	0000000000000000 panic_msg
0000000004027210 l       ro	0000000000000000 panic_common
0000000004027230 l       ro	0000000000000000 _panic_loop
0000000000000000 l    df *ABS*	0000000000000000 ./build/a3700_z/debug/bl31/cache_helpers.o
0000000004027250 l       ro	0000000000000000 loop_civac
0000000004027284 l       ro	0000000000000000 loop_cvac
00000000040272b8 l       ro	0000000000000000 loop_ivac
00000000040272d0 l     F ro	000000000000007c do_dcsw_op
0000000004027348 l       ro	0000000000000000 exit
000000000402734c l       ro	0000000000000000 dcsw_loop_table
00000000040272e4 l       ro	0000000000000000 loop1
0000000004027330 l       ro	0000000000000000 level_done
000000000402734c l       ro	0000000000000000 loop2_isw
0000000004027350 l       ro	0000000000000000 loop3_isw
000000000402736c l       ro	0000000000000000 loop2_cisw
0000000004027370 l       ro	0000000000000000 loop3_cisw
000000000402738c l       ro	0000000000000000 loop2_csw
0000000004027390 l       ro	0000000000000000 loop3_csw
0000000000000000 l    df *ABS*	0000000000000000 ./build/a3700_z/debug/bl31/misc_helpers.o
00000000040273e4 l       ro	0000000000000000 z_loop16
00000000040273f8 l       ro	0000000000000000 z_loop1
0000000004027408 l       ro	0000000000000000 z_end
0000000000000000 l    df *ABS*	0000000000000000 ./build/a3700_z/debug/bl31/platform_helpers.o
0000000000000000 l    df *ABS*	0000000000000000 ./build/a3700_z/debug/bl31/console.o
000000000402a2c0 l       .data	0000000000000000 console_base
0000000004027424 l       ro	0000000000000000 init_fail
0000000000000000 l    df *ABS*	0000000000000000 ./build/a3700_z/debug/bl31/a3700_console.o
0000000004027490 l       ro	0000000000000000 init_fail
00000000040274d4 l       ro	0000000000000000 putc_error
0000000000000000 l    df *ABS*	0000000000000000 ./build/a3700_z/debug/bl31/marvell_helpers.o
0000000000000000 l    df *ABS*	0000000000000000 
0000000000000000 l    df *ABS*	0000000000000000 ./build/a3700_z/debug/bl31/plat_psci.o
000000000402a198 l       ._secure.text	0000000000000000 _vectors
000000000402a0ac l       ._secure.text	0000000000000000 psci_build_stack
000000000402a190 l       ._secure.text	0000000000000000 _target_pc
000000000402a1a0 l       ._secure.text	0000000000000000 text_end
0000000000000000 l    df *ABS*	0000000000000000 ./build/a3700_z/debug/bl31/transition.o
0000000000000000 l    df *ABS*	0000000000000000 cpu_data_array.c
00000000040268fc g     F ro	000000000000002c putchar
00000000040232e8 g     F ro	000000000000000c plat_delay_timer_init
0000000004024b40 g     F ro	0000000000000108 cm_prepare_el3_exit
00000000040243c0  w    F ro	0000000000000060 plat_ic_get_pending_interrupt_type
0000000004023f28 g     F ro	0000000000000014 gicd_write_igrpmodr
0000000004025e20 g     F ro	0000000000000028 psci_migrate_info_up_cpu
000000000402b340 g       .bss	0000000000000000 __BL31_END__
0000000004025ad8 g     F ro	000000000000011c psci_cpu_suspend
0000000004026f40 g     F ro	0000000000000034 reset_handler
0000000004027520 g     O ro	000000000000001a version_string
00000000040257f8 g     F ro	0000000000000104 psci_validate_entry_point
00000000040265a8 g     F ro	0000000000000004 print_entry_point_info
00000000040248f0 g     F ro	000000000000003c cm_get_context
000000000402a100 g       ._secure.text	0000000000000000 psci_0_2_cpu_on_64
0000000004026e88 g     F ro	0000000000000048 save_gp_registers
0000000004025764 g     F ro	0000000000000074 psci_release_pwr_domain_locks
00000000040252ac g     F ro	0000000000000050 psci_validate_power_state
00000000040231a0 g     F ro	000000000000000c plat_core_pos_by_mpidr
000000000402a090 g       ._secure.text	0000000000000000 enable_affinity
000000000402a000 g       ro	0000000000000000 __RW_START__
00000000040258fc g     F ro	000000000000011c psci_power_up_finish
00000000040251bc g     F ro	00000000000000c8 psci_cpu_suspend_finish
0000000004023178 g     F ro	0000000000000018 a3700_validate_ns_entrypoint
0000000004027158 g     F ro	0000000000000058 asm_assert
0000000004024420  w    F ro	000000000000004c bl31_plat_get_next_image_ep_info
00000000040273ac g     F ro	0000000000000010 dcsw_op_level1
00000000040271f8 g     F ro	000000000000003c do_panic
000000000402b1c0 g     O .bss	0000000000000080 rt_svc_descs_indices
000000000402397c g     F ro	0000000000000014 gicd_write_isenabler
00000000040245a4 g     F ro	0000000000000014 plat_setup_psci_ops
000000000402a2b8 g     O .data	0000000000000004 sys_info_size
00000000040270cc g     F ro	000000000000000c psci_power_down_wfi
0000000004027778 g     O ro	0000000000000008 g1s_interrupt_array
0000000004027124 g     F ro	0000000000000034 psci_do_pwrup_cache_maintenance
0000000004025d10 g     F ro	0000000000000038 psci_affinity_info
0000000004025d48 g     F ro	00000000000000c0 psci_migrate
00000000040232b4  w    F ro	0000000000000014 plat_marvell_gic_cpuif_enable
0000000004024064 g     F ro	000000000000009c gicv3_rdistif_base_addrs_probe
0000000004023850 g     F ro	0000000000000104 i2c_write
0000000004027758 g     O ro	000000000000001c g0_interrupt_array
0000000004027540 g     O ro	000000000000001e build_message
0000000004026f1c g     F ro	0000000000000024 el3_exit
0000000004024570 g     F ro	000000000000001c marvell_bl31_plat_runtime_setup
0000000004025fd8 g     F ro	00000000000002e8 psci_setup
0000000004024590 g     F ro	0000000000000004 bl31_plat_runtime_setup
000000000402a2ac g       .data	0000000000000000 __DATA_START__
000000000402a0a0 g       ._secure.text	0000000000000000 psci_arch_init
000000000402b2c0 g     O .bss	0000000000000004 psci_locks
0000000004027410  w    F ro	0000000000000004 plat_disable_acp
0000000004025620 g     F ro	0000000000000024 psci_find_target_suspend_lvl
000000000402a000 g       ._secure.text	0000000000000000 _armada3700_cpu_entry
00000000040242f4 g     F ro	00000000000000cc gicv3_secure_ppi_sgi_configure
00000000040239e4 g     F ro	000000000000000c gicd_set_isenabler
0000000004026edc g     F ro	0000000000000040 restore_gp_registers_callee_eret
0000000004026328 g     F ro	0000000000000068 psci_system_reset
000000000402446c g     F ro	00000000000000e8 marvell_bl31_early_platform_setup
0000000004023160 g     F ro	0000000000000018 a3700_pwr_domain_on
00000000040268dc g     F ro	0000000000000020 memcpy
0000000004023fcc g     F ro	000000000000001c gicr_set_igrpmodr0
00000000040257d8 g     F ro	0000000000000020 psci_validate_mpidr
0000000004025bf4 g     F ro	00000000000000dc psci_system_suspend
0000000004024ae8 g     F ro	000000000000002c cm_init_context_by_index
0000000004023b80 g     F ro	0000000000000128 gicv3_distif_init
00000000040253d0 g     F ro	0000000000000048 psci_get_parent_pwr_domain_nodes
00000000040239f0 g     F ro	0000000000000190 gicv3_driver_init
0000000004027498 g     F ro	0000000000000044 console_core_putc
000000000402419c g     F ro	0000000000000104 gicv3_secure_spis_configure
00000000040262c0 g     F ro	0000000000000068 psci_system_off
0000000004027780 g     O ro	0000000000000040 marvell_gic_data
0000000004028fc0 g       ro	0000000000000000 __RT_SVC_DESCS_START__
0000000004023294  w    F ro	0000000000000020 plat_marvell_gic_init
000000000402ab00 g       stacks	0000000000000000 __STACKS_END__
0000000004027268 g     F ro	0000000000000034 clean_dcache_range
000000000402a084 g       ._secure.text	0000000000000000 psci_save_cpu_entrypoint
0000000004023130 g     F ro	0000000000000018 a3700_pwr_domain_suspend_finish
0000000004027560 g     O ro	0000000000000058 plat_arm_psci_pm_ops
0000000004024004 g     F ro	0000000000000014 gicr_set_isenabler0
0000000004024018 g     F ro	000000000000004c gicv3_rdistif_mark_core_awake
0000000004026aa8  w    F ro	0000000000000010 plat_set_my_stack
0000000004024978 g     F ro	0000000000000050 cm_set_context_by_index
0000000004028fe0 g       ro	0000000000000000 __RT_SVC_DESCS_END__
00000000040271c8 g     F ro	0000000000000030 asm_print_hex
00000000040231ac g     F ro	000000000000009c bl31_plat_arch_setup
000000000402469c g     F ro	0000000000000064 bl31_main
000000000402b240 g     O .bss	0000000000000020 psci_cpu_pd_nodes
0000000000000840 g       *ABS*	0000000000000000 __BSS_SIZE__
00000000040271b0 g     F ro	0000000000000018 asm_print_str
0000000004027434 g     F ro	0000000000000064 console_core_init
00000000040269e0  w    F ro	0000000000000004 bl31_plat_enable_mmu
0000000004024ae4 g     F ro	0000000000000004 cm_init
0000000004027750 g     O ro	0000000000000003 arm_power_domain_tree_desc
0000000004029800 g       ro	0000000000000000 runtime_exceptions
000000000402b080 g     O .bss	0000000000000010 rdistif_base_addrs
0000000004024594 g     F ro	0000000000000004 marvell_bl31_plat_arch_setup
0000000004027414 g     F ro	0000000000000014 console_init
0000000004023f9c g     F ro	0000000000000014 gicr_write_ipriorityr
0000000004025a18 g     F ro	000000000000005c psci_spd_migrate_info
0000000004026acc g     F ro	000000000000000c _cpu_data_by_index
000000000402a000 g       ro	0000000000000000 __RO_END_UNALIGNED__
0000000004025a74 g     F ro	0000000000000004 psci_print_power_domain_map
00000000040245c4 g     F ro	0000000000000058 plat_get_target_pwr_state
0000000004027428 g     F ro	000000000000000c console_putc
00000000040239a0 g     F ro	0000000000000014 gicd_write_icfgr
0000000004025338 g     F ro	0000000000000084 psci_is_last_on_cpu
00000000040274f4 g     F ro	000000000000001c plat_crash_console_init
0000000004027234 g     F ro	0000000000000034 flush_dcache_range
00000000040233a0 g     F ro	0000000000000054 timer_init
0000000004023118 g     F ro	0000000000000018 a3700_pwr_domain_on_finish
00000000040230b8 g     F ro	0000000000000018 a3700_validate_power_state
0000000004026bfc g     F ro	0000000000000028 report_unhandled_exception
0000000004024f80 g     F ro	00000000000000d0 psci_cpu_on_finish
0000000004025cd0 g     F ro	0000000000000040 psci_cpu_off
000000000402740c  w    F ro	0000000000000004 plat_reset_handler
0000000004023ca8 g     F ro	0000000000000130 gicv3_rdistif_init
0000000004027010 g     F ro	000000000000003c get_cpu_ops_ptr
0000000004023000 g     F ro	00000000000000a4 bl31_entrypoint
000000000402492c g     F ro	000000000000004c cm_get_context_by_index
0000000004024b14 g     F ro	000000000000002c cm_init_my_context
0000000004026ab8 g     F ro	0000000000000014 init_cpu_data_ptr
0000000000000040 g       *ABS*	0000000000000000 __PERCPU_BAKERY_LOCK_SIZE__
0000000004027074 g     F ro	0000000000000058 psci_entrypoint
0000000004023fe8 g     F ro	000000000000001c gicr_clr_igrpmodr0
00000000040232c8  w    F ro	0000000000000014 plat_marvell_gic_pcpu_init
0000000004024cd8 g     F ro	0000000000000110 psci_do_cpu_off
000000000402b290 g     O .bss	0000000000000004 psci_caps
0000000004026ff0 g     F ro	0000000000000020 do_cpu_reg_dump
000000000402a2c8 g       .data	0000000000000000 __DATA_END__
0000000004023f3c g     F ro	0000000000000030 gicd_set_igrpmodr
0000000004028fe0 g       ro	0000000000000000 __CPU_OPS_START__
00000000040232f4 g     F ro	00000000000000ac udelay
000000000402729c g     F ro	0000000000000034 inv_dcache_range
0000000004026ed0 g     F ro	000000000000000c restore_gp_registers_eret
0000000004025e98 g     F ro	0000000000000140 psci_smc_handler
0000000004025050 g     F ro	000000000000016c psci_cpu_suspend_start
00000000040253bc g     F ro	0000000000000014 psci_init_req_local_pwr_states
000000000402b340 g       .bss	0000000000000000 __BAKERY_LOCK_END__
0000000004024e20 g     F ro	0000000000000160 psci_cpu_on_start
00000000040255f4 g     F ro	000000000000002c psci_find_max_off_lvl
000000000402b260 g     O .bss	0000000000000020 psci_non_cpu_pd_nodes
0000000004029008 g       ro	0000000000000000 __CPU_OPS_END__
000000000402b340 g       .bss	0000000000000000 __BSS_END__
00000000040270d8 g     F ro	000000000000004c psci_do_pwrdown_cache_maintenance
00000000040230d0 g     F ro	0000000000000018 a3700_cpu_standby
0000000004023f14 g     F ro	0000000000000014 gicd_read_igrpmodr
0000000004025a78 g     F ro	0000000000000060 psci_cpu_on
000000000402461c g     F ro	0000000000000080 bl31_prepare_next_image_entry
0000000004025644 g     F ro	00000000000000a4 psci_validate_suspend_req
00000000040274e4  w    F ro	0000000000000010 plat_arm_calc_core_pos
0000000004025e48 g     F ro	0000000000000050 psci_features
00000000040268c0 g     F ro	000000000000001c memset
00000000040248d0 g     F ro	0000000000000020 bl31_arch_setup
000000000402b2c0 g       .bss	0000000000000000 __BAKERY_LOCK_START__
0000000004024c4c g     F ro	000000000000008c std_svc_smc_handler
000000000402371c g     F ro	0000000000000134 i2c_read
0000000004024554  w    F ro	0000000000000004 bl31_early_platform_setup
0000000004024558 g     F ro	0000000000000018 marvell_bl31_platform_setup
000000000402b280 g     O .bss	0000000000000008 psci_plat_pm_ops
0000000004026390 g     F ro	0000000000000194 bakery_lock_get
0000000004026524 g     F ro	0000000000000084 bakery_lock_release
00000000040248a4 g     F ro	000000000000002c get_interrupt_type_handler
000000000402a0e8 g       ._secure.text	0000000000000000 psci_0_2_system_reset
00000000040245b8 g     F ro	000000000000000c plat_get_power_domain_tree_desc
0000000004023990 g     F ro	0000000000000010 gicd_write_ipriorityr
0000000004026620 g     F ro	0000000000000284 tf_printf
00000000040273bc g     F ro	0000000000000010 dcsw_op_level2
0000000004026fbc g     F ro	0000000000000034 init_cpu_ops
000000000402a000 g       ro	0000000000000000 __RO_END__
0000000004023248 g     F ro	0000000000000040 set_info
0000000004023708 g     F ro	0000000000000014 i2c_init
0000000004023954 g     F ro	0000000000000014 gicd_read_igroupr
000000000402706c g     F ro	0000000000000008 spin_unlock
0000000004026f98 g     F ro	0000000000000024 prepare_cluster_pwr_dwn
000000000402ab00 g       .bss	0000000000000000 __BSS_START__
0000000004023000 g       ro	0000000000000000 __RO_START__
0000000004027510 g     F ro	000000000000000c plat_crash_console_putc
000000000402b0c0 g     O .bss	0000000000000100 percpu_data
000000000402704c g     F ro	0000000000000020 spin_lock
0000000004023ed0 g     F ro	0000000000000044 gicv3_get_pending_interrupt_type
00000000040252fc g     F ro	000000000000003c psci_query_sys_suspend_pwrstate
00000000040234d4 g     F ro	0000000000000234 i2c_transfer
0000000004024844 g     F ro	0000000000000060 get_scr_el3_from_routing_model
000000000402b340 g       .bss	0000000000000000 __RW_END__
000000000402458c  w    F ro	0000000000000004 bl31_platform_setup
000000000402a300 g       stacks	0000000000000000 __STACKS_START__
00000000040254c4 g     F ro	0000000000000130 psci_do_state_coordination
0000000004026f74 g     F ro	0000000000000024 prepare_core_pwr_dwn
0000000004026928 g     F ro	00000000000000b8 enable_mmu_el3
0000000004023f6c g     F ro	0000000000000030 gicd_clr_igrpmodr
00000000040274dc  w    F ro	0000000000000008 plat_my_core_pos
0000000004024100 g     F ro	000000000000009c gicv3_spis_configure_defaults
000000000402a2b0 g     O .data	0000000000000008 sys_info_in_ptr
0000000004024700 g     F ro	0000000000000144 runtime_svc_init
0000000004023fb0 g     F ro	000000000000001c gicr_clr_igroupr0
0000000004025e08 g     F ro	0000000000000018 psci_migrate_info_type
00000000040268a4 g     F ro	000000000000001c __assert
0000000004026c4c g     F ro	000000000000002c el3_panic
00000000040239b4 g     F ro	0000000000000030 gicd_clr_igroupr
0000000004024598  w    F ro	000000000000000c plat_get_syscnt_freq
0000000004023288  w    F ro	000000000000000c plat_marvell_gic_driver_init
00000000040256e8 g     F ro	000000000000007c psci_acquire_pwr_domain_locks
000000000402a1c0 g     F ._secure.text	0000000000000060 armv8_switch_to_el2
0000000004026dd4 g     F ro	00000000000000b4 el1_sysregs_context_restore
00000000040273cc g     F ro	0000000000000040 zeromem16
0000000004025418 g     F ro	00000000000000ac psci_set_pwr_domains_to_run
0000000004023dd8 g     F ro	00000000000000f8 gicv3_cpuif_enable
0000000004023968 g     F ro	0000000000000014 gicd_write_igroupr
0000000004026c24 g     F ro	0000000000000028 report_unhandled_interrupt
00000000040230e8 g     F ro	0000000000000018 a3700_pwr_domain_off
00000000040242a0 g     F ro	0000000000000054 gicv3_ppi_sgi_configure_defaults
0000000004023100 g     F ro	0000000000000018 a3700_pwr_domain_suspend
000000000402a220 g     F ._secure.text	000000000000008c armv8_switch_to_el1
0000000004026a88  w    F ro	0000000000000018 plat_get_my_stack
000000000402b288 g     O .bss	0000000000000008 psci_spd_pm



Disassembly of section ro:

0000000004023000 <bl31_entrypoint>:
 4023000:	aa0003f4 	mov	x20, x0
 4023004:	aa0103f5 	mov	x21, x1
 4023008:	94000fce 	bl	4026f40 <reset_handler>
 402300c:	d2820141 	mov	x1, #0x100a                	// #4106
 4023010:	d53e1000 	mrs	x0, sctlr_el3
 4023014:	aa010000 	orr	x0, x0, x1
 4023018:	d51e1000 	msr	sctlr_el3, x0
 402301c:	d5033fdf 	isb
 4023020:	94000ea6 	bl	4026ab8 <init_cpu_data_ptr>
 4023024:	10033ee0 	adr	x0, 4029800 <runtime_exceptions>
 4023028:	d51ec000 	msr	vbar_el3, x0
 402302c:	d5033fdf 	isb
 4023030:	d50344ff 	msr	daifclr, #0x4
 4023034:	d53e1140 	mrs	x0, cptr_el3
 4023038:	12007800 	and	w0, w0, #0x7fffffff
 402303c:	120b7800 	and	w0, w0, #0xffefffff
 4023040:	12157800 	and	w0, w0, #0xfffffbff
 4023044:	d51e1140 	msr	cptr_el3, x0
 4023048:	10037dc0 	adr	x0, 402a000 <__RO_END_UNALIGNED__>
 402304c:	100417a1 	adr	x1, 402b340 <__BAKERY_LOCK_END__>
 4023050:	cb000021 	sub	x1, x1, x0
 4023054:	94001092 	bl	402729c <inv_dcache_range>
 4023058:	58000280 	ldr	x0, 40230a8 <bl31_entrypoint+0xa8>
 402305c:	580002a1 	ldr	x1, 40230b0 <bl31_entrypoint+0xb0>
 4023060:	940010db 	bl	40273cc <zeromem16>
 4023064:	d50040bf 	msr	spsel, #0x0
 4023068:	94000e90 	bl	4026aa8 <plat_set_my_stack>
 402306c:	aa1403e0 	mov	x0, x20
 4023070:	aa1503e1 	mov	x1, x21
 4023074:	94000538 	bl	4024554 <bl31_early_platform_setup>
 4023078:	9400004d 	bl	40231ac <bl31_plat_arch_setup>
 402307c:	94000588 	bl	402469c <bl31_main>
 4023080:	10039160 	adr	x0, 402a2ac <__DATA_START__>
 4023084:	10039221 	adr	x1, 402a2c8 <__DATA_END__>
 4023088:	cb000021 	sub	x1, x1, x0
 402308c:	94001077 	bl	4027268 <clean_dcache_range>
 4023090:	1003d380 	adr	x0, 402ab00 <__STACKS_END__>
 4023094:	10041561 	adr	x1, 402b340 <__BAKERY_LOCK_END__>
 4023098:	cb000021 	sub	x1, x1, x0
 402309c:	94001073 	bl	4027268 <clean_dcache_range>
 40230a0:	14000f9f 	b	4026f1c <el3_exit>
 40230a4:	00000000 	.word	0x00000000
 40230a8:	0402ab00 	.word	0x0402ab00
 40230ac:	00000000 	.word	0x00000000
 40230b0:	00000840 	.word	0x00000840
 40230b4:	00000000 	.word	0x00000000

00000000040230b8 <a3700_validate_power_state>:
 40230b8:	a9bf7bfd 	stp	x29, x30, [sp,#-16]!
 40230bc:	90000020 	adrp	x0, 4027000 <do_cpu_reg_dump+0x10>
 40230c0:	910003fd 	mov	x29, sp
 40230c4:	9116e000 	add	x0, x0, #0x5b8
 40230c8:	94000d56 	bl	4026620 <tf_printf>
 40230cc:	9400104b 	bl	40271f8 <do_panic>

00000000040230d0 <a3700_cpu_standby>:
 40230d0:	a9bf7bfd 	stp	x29, x30, [sp,#-16]!
 40230d4:	90000020 	adrp	x0, 4027000 <do_cpu_reg_dump+0x10>
 40230d8:	910003fd 	mov	x29, sp
 40230dc:	9117d400 	add	x0, x0, #0x5f5
 40230e0:	94000d50 	bl	4026620 <tf_printf>
 40230e4:	94001045 	bl	40271f8 <do_panic>

00000000040230e8 <a3700_pwr_domain_off>:
 40230e8:	a9bf7bfd 	stp	x29, x30, [sp,#-16]!
 40230ec:	90000020 	adrp	x0, 4027000 <do_cpu_reg_dump+0x10>
 40230f0:	910003fd 	mov	x29, sp
 40230f4:	9118a400 	add	x0, x0, #0x629
 40230f8:	94000d4a 	bl	4026620 <tf_printf>
 40230fc:	9400103f 	bl	40271f8 <do_panic>

0000000004023100 <a3700_pwr_domain_suspend>:
 4023100:	a9bf7bfd 	stp	x29, x30, [sp,#-16]!
 4023104:	90000020 	adrp	x0, 4027000 <do_cpu_reg_dump+0x10>
 4023108:	910003fd 	mov	x29, sp
 402310c:	91198000 	add	x0, x0, #0x660
 4023110:	94000d44 	bl	4026620 <tf_printf>
 4023114:	94001039 	bl	40271f8 <do_panic>

0000000004023118 <a3700_pwr_domain_on_finish>:
 4023118:	a9bf7bfd 	stp	x29, x30, [sp,#-16]!
 402311c:	90000020 	adrp	x0, 4027000 <do_cpu_reg_dump+0x10>
 4023120:	910003fd 	mov	x29, sp
 4023124:	911a6c00 	add	x0, x0, #0x69b
 4023128:	94000d3e 	bl	4026620 <tf_printf>
 402312c:	94001033 	bl	40271f8 <do_panic>

0000000004023130 <a3700_pwr_domain_suspend_finish>:
 4023130:	a9bf7bfd 	stp	x29, x30, [sp,#-16]!
 4023134:	90000020 	adrp	x0, 4027000 <do_cpu_reg_dump+0x10>
 4023138:	910003fd 	mov	x29, sp
 402313c:	911b6000 	add	x0, x0, #0x6d8
 4023140:	94000d38 	bl	4026620 <tf_printf>
 4023144:	9400102d 	bl	40271f8 <do_panic>

0000000004023148 <a3700_system_off>:
 4023148:	a9bf7bfd 	stp	x29, x30, [sp,#-16]!
 402314c:	90000020 	adrp	x0, 4027000 <do_cpu_reg_dump+0x10>
 4023150:	910003fd 	mov	x29, sp
 4023154:	911c6800 	add	x0, x0, #0x71a
 4023158:	94000d32 	bl	4026620 <tf_printf>
 402315c:	94001027 	bl	40271f8 <do_panic>

0000000004023160 <a3700_pwr_domain_on>:
 4023160:	a9bf7bfd 	stp	x29, x30, [sp,#-16]!
 4023164:	910003fd 	mov	x29, sp
 4023168:	94001be6 	bl	402a100 <psci_0_2_cpu_on_64>
 402316c:	52800000 	mov	w0, #0x0                   	// #0
 4023170:	a8c17bfd 	ldp	x29, x30, [sp],#16
 4023174:	d65f03c0 	ret

0000000004023178 <a3700_validate_ns_entrypoint>:
 4023178:	a9bf7bfd 	stp	x29, x30, [sp,#-16]!
 402317c:	910003fd 	mov	x29, sp
 4023180:	94001bc1 	bl	402a084 <psci_save_cpu_entrypoint>
 4023184:	52800000 	mov	w0, #0x0                   	// #0
 4023188:	a8c17bfd 	ldp	x29, x30, [sp],#16
 402318c:	d65f03c0 	ret

0000000004023190 <a3700_system_reset>:
 4023190:	a9bf7bfd 	stp	x29, x30, [sp,#-16]!
 4023194:	910003fd 	mov	x29, sp
 4023198:	94001bd4 	bl	402a0e8 <psci_0_2_system_reset>
 402319c:	94001017 	bl	40271f8 <do_panic>

00000000040231a0 <plat_core_pos_by_mpidr>:
 40231a0:	7100041f 	cmp	w0, #0x1
 40231a4:	5a9fd000 	csinv	w0, w0, wzr, le
 40231a8:	d65f03c0 	ret

00000000040231ac <bl31_plat_arch_setup>:
 40231ac:	a9be7bfd 	stp	x29, x30, [sp,#-32]!
 40231b0:	910003fd 	mov	x29, sp
 40231b4:	940004f8 	bl	4024594 <marvell_bl31_plat_arch_setup>
 40231b8:	d2870601 	mov	x1, #0x3830                	// #14384
 40231bc:	f2ba0021 	movk	x1, #0xd001, lsl #16
 40231c0:	b9400020 	ldr	w0, [x1]
 40231c4:	12157800 	and	w0, w0, #0xfffffbff
 40231c8:	b9000020 	str	w0, [x1]
 40231cc:	94000047 	bl	40232e8 <plat_delay_timer_init>
 40231d0:	9400014e 	bl	4023708 <i2c_init>
 40231d4:	52800024 	mov	w4, #0x1                   	// #1
 40231d8:	91007ba3 	add	x3, x29, #0x1e
 40231dc:	2a0403e2 	mov	w2, w4
 40231e0:	52800001 	mov	w1, #0x0                   	// #0
 40231e4:	52800980 	mov	w0, #0x4c                  	// #76
 40231e8:	9400014d 	bl	402371c <i2c_read>
 40231ec:	39407ba1 	ldrb	w1, [x29,#30]
 40231f0:	52800180 	mov	w0, #0xc                   	// #12
 40231f4:	94000015 	bl	4023248 <set_info>
 40231f8:	39407ba0 	ldrb	w0, [x29,#30]
 40231fc:	7100181f 	cmp	w0, #0x6
 4023200:	54000120 	b.eq	4023224 <bl31_plat_arch_setup+0x78>
 4023204:	910083a3 	add	x3, x29, #0x20
 4023208:	528000c0 	mov	w0, #0x6                   	// #6
 402320c:	52800024 	mov	w4, #0x1                   	// #1
 4023210:	52800001 	mov	w1, #0x0                   	// #0
 4023214:	2a0403e2 	mov	w2, w4
 4023218:	381ffc60 	strb	w0, [x3,#-1]!
 402321c:	52800980 	mov	w0, #0x4c                  	// #76
 4023220:	9400018c 	bl	4023850 <i2c_write>
 4023224:	52804001 	mov	w1, #0x200                 	// #512
 4023228:	52800020 	mov	w0, #0x1                   	// #1
 402322c:	94000007 	bl	4023248 <set_info>
 4023230:	d2880000 	mov	x0, #0x4000                	// #16384
 4023234:	32020fe1 	mov	w1, #0xc0000003            	// #-1073741821
 4023238:	f2bb0000 	movk	x0, #0xd800, lsl #16
 402323c:	b9000001 	str	w1, [x0]
 4023240:	a8c27bfd 	ldp	x29, x30, [sp],#32
 4023244:	d65f03c0 	ret

0000000004023248 <set_info>:
 4023248:	f0000023 	adrp	x3, 402a000 <__RO_END_UNALIGNED__>
 402324c:	f0000024 	adrp	x4, 402a000 <__RO_END_UNALIGNED__>
 4023250:	b942b862 	ldr	w2, [x3,#696]
 4023254:	7100045f 	cmp	w2, #0x1
 4023258:	54000061 	b.ne	4023264 <set_info+0x1c>
 402325c:	f9415885 	ldr	x5, [x4,#688]
 4023260:	b90000bf 	str	wzr, [x5]
 4023264:	f9415884 	ldr	x4, [x4,#688]
 4023268:	937d7c45 	sbfiz	x5, x2, #3, #32
 402326c:	11000442 	add	w2, w2, #0x1
 4023270:	8b050086 	add	x6, x4, x5
 4023274:	b8256880 	str	w0, [x4,x5]
 4023278:	b902b862 	str	w2, [x3,#696]
 402327c:	b90004c1 	str	w1, [x6,#4]
 4023280:	b9000482 	str	w2, [x4,#4]
 4023284:	d65f03c0 	ret

0000000004023288 <plat_marvell_gic_driver_init>:
 4023288:	90000020 	adrp	x0, 4027000 <do_cpu_reg_dump+0x10>
 402328c:	911e0000 	add	x0, x0, #0x780
 4023290:	140001d8 	b	40239f0 <gicv3_driver_init>

0000000004023294 <plat_marvell_gic_init>:
 4023294:	a9bf7bfd 	stp	x29, x30, [sp,#-16]!
 4023298:	910003fd 	mov	x29, sp
 402329c:	94000239 	bl	4023b80 <gicv3_distif_init>
 40232a0:	9400108f 	bl	40274dc <plat_my_core_pos>
 40232a4:	94000281 	bl	4023ca8 <gicv3_rdistif_init>
 40232a8:	9400108d 	bl	40274dc <plat_my_core_pos>
 40232ac:	a8c17bfd 	ldp	x29, x30, [sp],#16
 40232b0:	140002ca 	b	4023dd8 <gicv3_cpuif_enable>

00000000040232b4 <plat_marvell_gic_cpuif_enable>:
 40232b4:	a9bf7bfd 	stp	x29, x30, [sp,#-16]!
 40232b8:	910003fd 	mov	x29, sp
 40232bc:	94001088 	bl	40274dc <plat_my_core_pos>
 40232c0:	a8c17bfd 	ldp	x29, x30, [sp],#16
 40232c4:	140002c5 	b	4023dd8 <gicv3_cpuif_enable>

00000000040232c8 <plat_marvell_gic_pcpu_init>:
 40232c8:	a9bf7bfd 	stp	x29, x30, [sp,#-16]!
 40232cc:	910003fd 	mov	x29, sp
 40232d0:	94001083 	bl	40274dc <plat_my_core_pos>
 40232d4:	a8c17bfd 	ldp	x29, x30, [sp],#16
 40232d8:	14000274 	b	4023ca8 <gicv3_rdistif_init>

00000000040232dc <plat_get_timer_value>:
 40232dc:	d53be020 	mrs	x0, cntpct_el0
 40232e0:	2a2003e0 	mvn	w0, w0
 40232e4:	d65f03c0 	ret

00000000040232e8 <plat_delay_timer_init>:
 40232e8:	90000020 	adrp	x0, 4027000 <do_cpu_reg_dump+0x10>
 40232ec:	911f0000 	add	x0, x0, #0x7c0
 40232f0:	1400002c 	b	40233a0 <timer_init>

00000000040232f4 <udelay>:
 40232f4:	a9bd7bfd 	stp	x29, x30, [sp,#-48]!
 40232f8:	910003fd 	mov	x29, sp
 40232fc:	a90153f3 	stp	x19, x20, [sp,#16]
 4023300:	f0000033 	adrp	x19, 402a000 <__RO_END_UNALIGNED__>
 4023304:	f90013f5 	str	x21, [sp,#32]
 4023308:	2a0003f5 	mov	w21, w0
 402330c:	f9458260 	ldr	x0, [x19,#2816]
 4023310:	b40000e0 	cbz	x0, 402332c <udelay+0x38>
 4023314:	b9400801 	ldr	w1, [x0,#8]
 4023318:	340000a1 	cbz	w1, 402332c <udelay+0x38>
 402331c:	b9400c01 	ldr	w1, [x0,#12]
 4023320:	34000061 	cbz	w1, 402332c <udelay+0x38>
 4023324:	f9400000 	ldr	x0, [x0]
 4023328:	b5000120 	cbnz	x0, 402334c <udelay+0x58>
 402332c:	90000023 	adrp	x3, 4027000 <do_cpu_reg_dump+0x10>
 4023330:	90000021 	adrp	x1, 4027000 <do_cpu_reg_dump+0x10>
 4023334:	90000020 	adrp	x0, 4027000 <do_cpu_reg_dump+0x10>
 4023338:	911f4063 	add	x3, x3, #0x7d0
 402333c:	52800622 	mov	w2, #0x31                  	// #49
 4023340:	91209c21 	add	x1, x1, #0x827
 4023344:	9122c000 	add	x0, x0, #0x8b0
 4023348:	94000d57 	bl	40268a4 <__assert>
 402334c:	d63f0000 	blr	x0
 4023350:	2a0003f4 	mov	w20, w0
 4023354:	f9458260 	ldr	x0, [x19,#2816]
 4023358:	f9400000 	ldr	x0, [x0]
 402335c:	d63f0000 	blr	x0
 4023360:	6b00029f 	cmp	w20, w0
 4023364:	4b000281 	sub	w1, w20, w0
 4023368:	54000062 	b.cs	4023374 <udelay+0x80>
 402336c:	2a2003e0 	mvn	w0, w0
 4023370:	0b000281 	add	w1, w20, w0
 4023374:	f9458262 	ldr	x2, [x19,#2816]
 4023378:	b9400840 	ldr	w0, [x2,#8]
 402337c:	1b007c21 	mul	w1, w1, w0
 4023380:	b9400c40 	ldr	w0, [x2,#12]
 4023384:	1ac00821 	udiv	w1, w1, w0
 4023388:	6b15003f 	cmp	w1, w21
 402338c:	54fffe43 	b.cc	4023354 <udelay+0x60>
 4023390:	a94153f3 	ldp	x19, x20, [sp,#16]
 4023394:	f94013f5 	ldr	x21, [sp,#32]
 4023398:	a8c37bfd 	ldp	x29, x30, [sp],#48
 402339c:	d65f03c0 	ret

00000000040233a0 <timer_init>:
 40233a0:	a9bf7bfd 	stp	x29, x30, [sp,#-16]!
 40233a4:	910003fd 	mov	x29, sp
 40233a8:	b40000e0 	cbz	x0, 40233c4 <timer_init+0x24>
 40233ac:	b9400801 	ldr	w1, [x0,#8]
 40233b0:	340000a1 	cbz	w1, 40233c4 <timer_init+0x24>
 40233b4:	b9400c01 	ldr	w1, [x0,#12]
 40233b8:	34000061 	cbz	w1, 40233c4 <timer_init+0x24>
 40233bc:	f9400001 	ldr	x1, [x0]
 40233c0:	b5000121 	cbnz	x1, 40233e4 <timer_init+0x44>
 40233c4:	90000023 	adrp	x3, 4027000 <do_cpu_reg_dump+0x10>
 40233c8:	90000021 	adrp	x1, 4027000 <do_cpu_reg_dump+0x10>
 40233cc:	90000020 	adrp	x0, 4027000 <do_cpu_reg_dump+0x10>
 40233d0:	91212463 	add	x3, x3, #0x849
 40233d4:	52800a82 	mov	w2, #0x54                  	// #84
 40233d8:	91209c21 	add	x1, x1, #0x827
 40233dc:	9122e000 	add	x0, x0, #0x8b8
 40233e0:	94000d31 	bl	40268a4 <__assert>
 40233e4:	f0000021 	adrp	x1, 402a000 <__RO_END_UNALIGNED__>
 40233e8:	a8c17bfd 	ldp	x29, x30, [sp],#16
 40233ec:	f9058020 	str	x0, [x1,#2816]
 40233f0:	d65f03c0 	ret

00000000040233f4 <i2c_isr_set_cleared>:
 40233f4:	a9bc7bfd 	stp	x29, x30, [sp,#-64]!
 40233f8:	910003fd 	mov	x29, sp
 40233fc:	a9025bf5 	stp	x21, x22, [sp,#32]
 4023400:	a90153f3 	stp	x19, x20, [sp,#16]
 4023404:	f9001bf7 	str	x23, [sp,#48]
 4023408:	aa0003f6 	mov	x22, x0
 402340c:	aa0103f5 	mov	x21, x1
 4023410:	52807d54 	mov	w20, #0x3ea                 	// #1002
 4023414:	f0000037 	adrp	x23, 402a000 <__RO_END_UNALIGNED__>
 4023418:	f94586e0 	ldr	x0, [x23,#2824]
 402341c:	b9400c13 	ldr	w19, [x0,#12]
 4023420:	52800140 	mov	w0, #0xa                   	// #10
 4023424:	97ffffb4 	bl	40232f4 <udelay>
 4023428:	71000694 	subs	w20, w20, #0x1
 402342c:	54000100 	b.eq	402344c <i2c_isr_set_cleared+0x58>
 4023430:	93407e60 	sxtw	x0, w19
 4023434:	ea2002df 	bics	xzr, x22, x0
 4023438:	54ffff01 	b.ne	4023418 <i2c_isr_set_cleared+0x24>
 402343c:	ea15001f 	tst	x0, x21
 4023440:	54fffec1 	b.ne	4023418 <i2c_isr_set_cleared+0x24>
 4023444:	52800020 	mov	w0, #0x1                   	// #1
 4023448:	14000002 	b	4023450 <i2c_isr_set_cleared+0x5c>
 402344c:	52800000 	mov	w0, #0x0                   	// #0
 4023450:	a94153f3 	ldp	x19, x20, [sp,#16]
 4023454:	a9425bf5 	ldp	x21, x22, [sp,#32]
 4023458:	f9401bf7 	ldr	x23, [sp,#48]
 402345c:	a8c47bfd 	ldp	x29, x30, [sp],#64
 4023460:	d65f03c0 	ret

0000000004023464 <i2c_reset>:
 4023464:	a9be7bfd 	stp	x29, x30, [sp,#-32]!
 4023468:	910003fd 	mov	x29, sp
 402346c:	f9000bf3 	str	x19, [sp,#16]
 4023470:	f0000033 	adrp	x19, 402a000 <__RO_END_UNALIGNED__>
 4023474:	f9458660 	ldr	x0, [x19,#2824]
 4023478:	b9400801 	ldr	w1, [x0,#8]
 402347c:	12197821 	and	w1, w1, #0xffffffbf
 4023480:	b9000801 	str	w1, [x0,#8]
 4023484:	b9400801 	ldr	w1, [x0,#8]
 4023488:	32120021 	orr	w1, w1, #0x4000
 402348c:	b9000801 	str	w1, [x0,#8]
 4023490:	52800c80 	mov	w0, #0x64                  	// #100
 4023494:	97ffff98 	bl	40232f4 <udelay>
 4023498:	f9458660 	ldr	x0, [x19,#2824]
 402349c:	f9400bf3 	ldr	x19, [sp,#16]
 40234a0:	b9400801 	ldr	w1, [x0,#8]
 40234a4:	12197821 	and	w1, w1, #0xffffffbf
 40234a8:	b9000801 	str	w1, [x0,#8]
 40234ac:	5280f401 	mov	w1, #0x7a0                 	// #1952
 40234b0:	b9000801 	str	w1, [x0,#8]
 40234b4:	5280ffe1 	mov	w1, #0x7ff                 	// #2047
 40234b8:	b9000c01 	str	w1, [x0,#12]
 40234bc:	b9400801 	ldr	w1, [x0,#8]
 40234c0:	321a0021 	orr	w1, w1, #0x40
 40234c4:	b9000801 	str	w1, [x0,#8]
 40234c8:	52800c80 	mov	w0, #0x64                  	// #100
 40234cc:	a8c27bfd 	ldp	x29, x30, [sp],#32
 40234d0:	17ffff89 	b	40232f4 <udelay>

00000000040234d4 <i2c_transfer>:
 40234d4:	a9bd7bfd 	stp	x29, x30, [sp,#-48]!
 40234d8:	910003fd 	mov	x29, sp
 40234dc:	a90153f3 	stp	x19, x20, [sp,#16]
 40234e0:	f90013f5 	str	x21, [sp,#32]
 40234e4:	b4000fc0 	cbz	x0, 40236dc <i2c_transfer+0x208>
 40234e8:	aa0003f3 	mov	x19, x0
 40234ec:	39400800 	ldrb	w0, [x0,#2]
 40234f0:	34000860 	cbz	w0, 40235fc <i2c_transfer+0x128>
 40234f4:	7100041f 	cmp	w0, #0x1
 40234f8:	54000f61 	b.ne	40236e4 <i2c_transfer+0x210>
 40234fc:	d2800101 	mov	x1, #0x8                   	// #8
 4023500:	d2800000 	mov	x0, #0x0                   	// #0
 4023504:	97ffffbc 	bl	40233f4 <i2c_isr_set_cleared>
 4023508:	35000060 	cbnz	w0, 4023514 <i2c_transfer+0x40>
 402350c:	128000b4 	mov	w20, #0xfffffffa            	// #-6
 4023510:	14000078 	b	40236f0 <i2c_transfer+0x21c>
 4023514:	f0000021 	adrp	x1, 402a000 <__RO_END_UNALIGNED__>
 4023518:	aa0103f4 	mov	x20, x1
 402351c:	f9458420 	ldr	x0, [x1,#2824]
 4023520:	b9400802 	ldr	w2, [x0,#8]
 4023524:	121f7842 	and	w2, w2, #0xfffffffe
 4023528:	b9000802 	str	w2, [x0,#8]
 402352c:	b9400802 	ldr	w2, [x0,#8]
 4023530:	121e7842 	and	w2, w2, #0xfffffffd
 4023534:	b9000802 	str	w2, [x0,#8]
 4023538:	39400e62 	ldrb	w2, [x19,#3]
 402353c:	b9000402 	str	w2, [x0,#4]
 4023540:	39400262 	ldrb	w2, [x19]
 4023544:	7100045f 	cmp	w2, #0x1
 4023548:	54000081 	b.ne	4023558 <i2c_transfer+0x84>
 402354c:	b9400801 	ldr	w1, [x0,#8]
 4023550:	32000021 	orr	w1, w1, #0x1
 4023554:	b9000801 	str	w1, [x0,#8]
 4023558:	39400261 	ldrb	w1, [x19]
 402355c:	7100083f 	cmp	w1, #0x2
 4023560:	54000081 	b.ne	4023570 <i2c_transfer+0x9c>
 4023564:	b9400801 	ldr	w1, [x0,#8]
 4023568:	321f0021 	orr	w1, w1, #0x2
 402356c:	b9000801 	str	w1, [x0,#8]
 4023570:	39400661 	ldrb	w1, [x19,#1]
 4023574:	7100103f 	cmp	w1, #0x4
 4023578:	54000081 	b.ne	4023588 <i2c_transfer+0xb4>
 402357c:	b9400801 	ldr	w1, [x0,#8]
 4023580:	321e0021 	orr	w1, w1, #0x4
 4023584:	b9000801 	str	w1, [x0,#8]
 4023588:	39400661 	ldrb	w1, [x19,#1]
 402358c:	7100083f 	cmp	w1, #0x2
 4023590:	54000081 	b.ne	40235a0 <i2c_transfer+0xcc>
 4023594:	b9400801 	ldr	w1, [x0,#8]
 4023598:	121d7821 	and	w1, w1, #0xfffffffb
 402359c:	b9000801 	str	w1, [x0,#8]
 40235a0:	b9400801 	ldr	w1, [x0,#8]
 40235a4:	12137821 	and	w1, w1, #0xffffefff
 40235a8:	b9000801 	str	w1, [x0,#8]
 40235ac:	b9400801 	ldr	w1, [x0,#8]
 40235b0:	321d0021 	orr	w1, w1, #0x8
 40235b4:	b9000801 	str	w1, [x0,#8]
 40235b8:	d2800001 	mov	x1, #0x0                   	// #0
 40235bc:	d2800800 	mov	x0, #0x40                  	// #64
 40235c0:	97ffff8d 	bl	40233f4 <i2c_isr_set_cleared>
 40235c4:	34000940 	cbz	w0, 40236ec <i2c_transfer+0x218>
 40235c8:	f9458681 	ldr	x1, [x20,#2824]
 40235cc:	b9400c20 	ldr	w0, [x1,#12]
 40235d0:	321a0000 	orr	w0, w0, #0x40
 40235d4:	b9000c20 	str	w0, [x1,#12]
 40235d8:	39400660 	ldrb	w0, [x19,#1]
 40235dc:	7100041f 	cmp	w0, #0x1
 40235e0:	540007a1 	b.ne	40236d4 <i2c_transfer+0x200>
 40235e4:	d2800041 	mov	x1, #0x2                   	// #2
 40235e8:	d2800000 	mov	x0, #0x0                   	// #0
 40235ec:	12800054 	mov	w20, #0xfffffffd            	// #-3
 40235f0:	97ffff81 	bl	40233f4 <i2c_isr_set_cleared>
 40235f4:	340007e0 	cbz	w0, 40236f0 <i2c_transfer+0x21c>
 40235f8:	14000037 	b	40236d4 <i2c_transfer+0x200>
 40235fc:	d2800101 	mov	x1, #0x8                   	// #8
 4023600:	d2800000 	mov	x0, #0x0                   	// #0
 4023604:	97ffff7c 	bl	40233f4 <i2c_isr_set_cleared>
 4023608:	34fff820 	cbz	w0, 402350c <i2c_transfer+0x38>
 402360c:	f0000021 	adrp	x1, 402a000 <__RO_END_UNALIGNED__>
 4023610:	aa0103f5 	mov	x21, x1
 4023614:	f9458420 	ldr	x0, [x1,#2824]
 4023618:	b9400802 	ldr	w2, [x0,#8]
 402361c:	121f7842 	and	w2, w2, #0xfffffffe
 4023620:	b9000802 	str	w2, [x0,#8]
 4023624:	b9400802 	ldr	w2, [x0,#8]
 4023628:	121e7842 	and	w2, w2, #0xfffffffd
 402362c:	b9000802 	str	w2, [x0,#8]
 4023630:	39400262 	ldrb	w2, [x19]
 4023634:	7100045f 	cmp	w2, #0x1
 4023638:	54000081 	b.ne	4023648 <i2c_transfer+0x174>
 402363c:	b9400801 	ldr	w1, [x0,#8]
 4023640:	32000021 	orr	w1, w1, #0x1
 4023644:	b9000801 	str	w1, [x0,#8]
 4023648:	39400261 	ldrb	w1, [x19]
 402364c:	7100083f 	cmp	w1, #0x2
 4023650:	54000081 	b.ne	4023660 <i2c_transfer+0x18c>
 4023654:	b9400801 	ldr	w1, [x0,#8]
 4023658:	321f0021 	orr	w1, w1, #0x2
 402365c:	b9000801 	str	w1, [x0,#8]
 4023660:	39400661 	ldrb	w1, [x19,#1]
 4023664:	7100103f 	cmp	w1, #0x4
 4023668:	54000081 	b.ne	4023678 <i2c_transfer+0x1a4>
 402366c:	b9400801 	ldr	w1, [x0,#8]
 4023670:	321e0021 	orr	w1, w1, #0x4
 4023674:	b9000801 	str	w1, [x0,#8]
 4023678:	39400661 	ldrb	w1, [x19,#1]
 402367c:	7100083f 	cmp	w1, #0x2
 4023680:	54000081 	b.ne	4023690 <i2c_transfer+0x1bc>
 4023684:	b9400801 	ldr	w1, [x0,#8]
 4023688:	121d7821 	and	w1, w1, #0xfffffffb
 402368c:	b9000801 	str	w1, [x0,#8]
 4023690:	b9400801 	ldr	w1, [x0,#8]
 4023694:	12800074 	mov	w20, #0xfffffffc            	// #-4
 4023698:	12137821 	and	w1, w1, #0xffffefff
 402369c:	b9000801 	str	w1, [x0,#8]
 40236a0:	b9400801 	ldr	w1, [x0,#8]
 40236a4:	321d0021 	orr	w1, w1, #0x8
 40236a8:	b9000801 	str	w1, [x0,#8]
 40236ac:	d2800001 	mov	x1, #0x0                   	// #0
 40236b0:	d2801000 	mov	x0, #0x80                  	// #128
 40236b4:	97ffff50 	bl	40233f4 <i2c_isr_set_cleared>
 40236b8:	340001c0 	cbz	w0, 40236f0 <i2c_transfer+0x21c>
 40236bc:	f94586a0 	ldr	x0, [x21,#2824]
 40236c0:	b9400401 	ldr	w1, [x0,#4]
 40236c4:	39000e61 	strb	w1, [x19,#3]
 40236c8:	b9400c01 	ldr	w1, [x0,#12]
 40236cc:	32190021 	orr	w1, w1, #0x80
 40236d0:	b9000c01 	str	w1, [x0,#12]
 40236d4:	52800000 	mov	w0, #0x0                   	// #0
 40236d8:	14000008 	b	40236f8 <i2c_transfer+0x224>
 40236dc:	12800014 	mov	w20, #0xffffffff            	// #-1
 40236e0:	14000004 	b	40236f0 <i2c_transfer+0x21c>
 40236e4:	12800094 	mov	w20, #0xfffffffb            	// #-5
 40236e8:	14000002 	b	40236f0 <i2c_transfer+0x21c>
 40236ec:	12800034 	mov	w20, #0xfffffffe            	// #-2
 40236f0:	97ffff5d 	bl	4023464 <i2c_reset>
 40236f4:	2a1403e0 	mov	w0, w20
 40236f8:	a94153f3 	ldp	x19, x20, [sp,#16]
 40236fc:	f94013f5 	ldr	x21, [sp,#32]
 4023700:	a8c37bfd 	ldp	x29, x30, [sp],#48
 4023704:	d65f03c0 	ret

0000000004023708 <i2c_init>:
 4023708:	f0000020 	adrp	x0, 402a000 <__RO_END_UNALIGNED__>
 402370c:	d2820001 	mov	x1, #0x1000                	// #4096
 4023710:	f2ba0021 	movk	x1, #0xd001, lsl #16
 4023714:	f9058401 	str	x1, [x0,#2824]
 4023718:	d65f03c0 	ret

000000000402371c <i2c_read>:
 402371c:	a9bb7bfd 	stp	x29, x30, [sp,#-80]!
 4023720:	910003fd 	mov	x29, sp
 4023724:	a90153f3 	stp	x19, x20, [sp,#16]
 4023728:	a9025bf5 	stp	x21, x22, [sp,#32]
 402372c:	a90363f7 	stp	x23, x24, [sp,#48]
 4023730:	2a0103f5 	mov	w21, w1
 4023734:	53001c17 	uxtb	w23, w0
 4023738:	2a0203f6 	mov	w22, w2
 402373c:	aa0303f8 	mov	x24, x3
 4023740:	2a0403f4 	mov	w20, w4
 4023744:	97ffff48 	bl	4023464 <i2c_reset>
 4023748:	910123a0 	add	x0, x29, #0x48
 402374c:	52800033 	mov	w19, #0x1                   	// #1
 4023750:	531f1af7 	ubfiz	w23, w23, #1, #7
 4023754:	390123b3 	strb	w19, [x29,#72]
 4023758:	390127b3 	strb	w19, [x29,#73]
 402375c:	39012bb3 	strb	w19, [x29,#74]
 4023760:	39012fb7 	strb	w23, [x29,#75]
 4023764:	97ffff5c 	bl	40234d4 <i2c_transfer>
 4023768:	34000060 	cbz	w0, 4023774 <i2c_read+0x58>
 402376c:	12800015 	mov	w21, #0xffffffff            	// #-1
 4023770:	14000032 	b	4023838 <i2c_read+0x11c>
 4023774:	53087ea0 	lsr	w0, w21, #8
 4023778:	390103b5 	strb	w21, [x29,#64]
 402377c:	390107a0 	strb	w0, [x29,#65]
 4023780:	53107eb5 	lsr	w21, w21, #16
 4023784:	39010bb5 	strb	w21, [x29,#66]
 4023788:	710006d6 	subs	w22, w22, #0x1
 402378c:	52800020 	mov	w0, #0x1                   	// #1
 4023790:	54000184 	b.mi	40237c0 <i2c_read+0xa4>
 4023794:	d13ec3a0 	sub	x0, x29, #0xfb0
 4023798:	390123bf 	strb	wzr, [x29,#72]
 402379c:	8b36c000 	add	x0, x0, w22, sxtw
 40237a0:	390127b3 	strb	w19, [x29,#73]
 40237a4:	39012bb3 	strb	w19, [x29,#74]
 40237a8:	397fc000 	ldrb	w0, [x0,#4080]
 40237ac:	39012fa0 	strb	w0, [x29,#75]
 40237b0:	910123a0 	add	x0, x29, #0x48
 40237b4:	97ffff48 	bl	40234d4 <i2c_transfer>
 40237b8:	34fffe80 	cbz	w0, 4023788 <i2c_read+0x6c>
 40237bc:	17ffffec 	b	402376c <i2c_read+0x50>
 40237c0:	390123a0 	strb	w0, [x29,#72]
 40237c4:	320002f7 	orr	w23, w23, #0x1
 40237c8:	390127a0 	strb	w0, [x29,#73]
 40237cc:	39012ba0 	strb	w0, [x29,#74]
 40237d0:	910123a0 	add	x0, x29, #0x48
 40237d4:	39012fb7 	strb	w23, [x29,#75]
 40237d8:	97ffff3f 	bl	40234d4 <i2c_transfer>
 40237dc:	2a0003f5 	mov	w21, w0
 40237e0:	35fffc60 	cbnz	w0, 402376c <i2c_read+0x50>
 40237e4:	51000693 	sub	w19, w20, #0x1
 40237e8:	52800096 	mov	w22, #0x4                   	// #4
 40237ec:	52800054 	mov	w20, #0x2                   	// #2
 40237f0:	3100067f 	cmn	w19, #0x1
 40237f4:	54000200 	b.eq	4023834 <i2c_read+0x118>
 40237f8:	35000093 	cbnz	w19, 4023808 <i2c_read+0xec>
 40237fc:	390123b4 	strb	w20, [x29,#72]
 4023800:	390127b6 	strb	w22, [x29,#73]
 4023804:	14000003 	b	4023810 <i2c_read+0xf4>
 4023808:	390123bf 	strb	wzr, [x29,#72]
 402380c:	390127b4 	strb	w20, [x29,#73]
 4023810:	910123a0 	add	x0, x29, #0x48
 4023814:	39012bbf 	strb	wzr, [x29,#74]
 4023818:	39012fbf 	strb	wzr, [x29,#75]
 402381c:	51000673 	sub	w19, w19, #0x1
 4023820:	97ffff2d 	bl	40234d4 <i2c_transfer>
 4023824:	35fffa40 	cbnz	w0, 402376c <i2c_read+0x50>
 4023828:	39412fa0 	ldrb	w0, [x29,#75]
 402382c:	38001700 	strb	w0, [x24],#1
 4023830:	17fffff0 	b	40237f0 <i2c_read+0xd4>
 4023834:	97ffff0c 	bl	4023464 <i2c_reset>
 4023838:	2a1503e0 	mov	w0, w21
 402383c:	a94153f3 	ldp	x19, x20, [sp,#16]
 4023840:	a9425bf5 	ldp	x21, x22, [sp,#32]
 4023844:	a94363f7 	ldp	x23, x24, [sp,#48]
 4023848:	a8c57bfd 	ldp	x29, x30, [sp],#80
 402384c:	d65f03c0 	ret

0000000004023850 <i2c_write>:
 4023850:	a9bb7bfd 	stp	x29, x30, [sp,#-80]!
 4023854:	910003fd 	mov	x29, sp
 4023858:	a90153f3 	stp	x19, x20, [sp,#16]
 402385c:	a9025bf5 	stp	x21, x22, [sp,#32]
 4023860:	a90363f7 	stp	x23, x24, [sp,#48]
 4023864:	2a0103f5 	mov	w21, w1
 4023868:	53001c17 	uxtb	w23, w0
 402386c:	2a0203f6 	mov	w22, w2
 4023870:	aa0303f8 	mov	x24, x3
 4023874:	2a0403f4 	mov	w20, w4
 4023878:	97fffefb 	bl	4023464 <i2c_reset>
 402387c:	910123a0 	add	x0, x29, #0x48
 4023880:	52800033 	mov	w19, #0x1                   	// #1
 4023884:	531f1af7 	ubfiz	w23, w23, #1, #7
 4023888:	390123b3 	strb	w19, [x29,#72]
 402388c:	390127b3 	strb	w19, [x29,#73]
 4023890:	39012bb3 	strb	w19, [x29,#74]
 4023894:	39012fb7 	strb	w23, [x29,#75]
 4023898:	97ffff0f 	bl	40234d4 <i2c_transfer>
 402389c:	34000060 	cbz	w0, 40238a8 <i2c_write+0x58>
 40238a0:	12800017 	mov	w23, #0xffffffff            	// #-1
 40238a4:	14000026 	b	402393c <i2c_write+0xec>
 40238a8:	2a0003f7 	mov	w23, w0
 40238ac:	390103b5 	strb	w21, [x29,#64]
 40238b0:	53087ea0 	lsr	w0, w21, #8
 40238b4:	53107eb5 	lsr	w21, w21, #16
 40238b8:	390107a0 	strb	w0, [x29,#65]
 40238bc:	39010bb5 	strb	w21, [x29,#66]
 40238c0:	710006d6 	subs	w22, w22, #0x1
 40238c4:	54000184 	b.mi	40238f4 <i2c_write+0xa4>
 40238c8:	d13ec3a0 	sub	x0, x29, #0xfb0
 40238cc:	390123bf 	strb	wzr, [x29,#72]
 40238d0:	8b36c000 	add	x0, x0, w22, sxtw
 40238d4:	390127b3 	strb	w19, [x29,#73]
 40238d8:	39012bb3 	strb	w19, [x29,#74]
 40238dc:	397fc000 	ldrb	w0, [x0,#4080]
 40238e0:	39012fa0 	strb	w0, [x29,#75]
 40238e4:	910123a0 	add	x0, x29, #0x48
 40238e8:	97fffefb 	bl	40234d4 <i2c_transfer>
 40238ec:	34fffea0 	cbz	w0, 40238c0 <i2c_write+0x70>
 40238f0:	17ffffec 	b	40238a0 <i2c_write+0x50>
 40238f4:	51000693 	sub	w19, w20, #0x1
 40238f8:	52800055 	mov	w21, #0x2                   	// #2
 40238fc:	52800034 	mov	w20, #0x1                   	// #1
 4023900:	3100067f 	cmn	w19, #0x1
 4023904:	540001a0 	b.eq	4023938 <i2c_write+0xe8>
 4023908:	6b1f027f 	cmp	w19, wzr
 402390c:	390127b4 	strb	w20, [x29,#73]
 4023910:	1a9f02a0 	csel	w0, w21, wzr, eq
 4023914:	390123a0 	strb	w0, [x29,#72]
 4023918:	38401700 	ldrb	w0, [x24],#1
 402391c:	51000673 	sub	w19, w19, #0x1
 4023920:	39012fa0 	strb	w0, [x29,#75]
 4023924:	910123a0 	add	x0, x29, #0x48
 4023928:	39012bb4 	strb	w20, [x29,#74]
 402392c:	97fffeea 	bl	40234d4 <i2c_transfer>
 4023930:	34fffe80 	cbz	w0, 4023900 <i2c_write+0xb0>
 4023934:	17ffffdb 	b	40238a0 <i2c_write+0x50>
 4023938:	97fffecb 	bl	4023464 <i2c_reset>
 402393c:	2a1703e0 	mov	w0, w23
 4023940:	a94153f3 	ldp	x19, x20, [sp,#16]
 4023944:	a9425bf5 	ldp	x21, x22, [sp,#32]
 4023948:	a94363f7 	ldp	x23, x24, [sp,#48]
 402394c:	a8c57bfd 	ldp	x29, x30, [sp],#80
 4023950:	d65f03c0 	ret

0000000004023954 <gicd_read_igroupr>:
 4023954:	53057c21 	lsr	w1, w1, #5
 4023958:	91020000 	add	x0, x0, #0x80
 402395c:	d37e6821 	ubfiz	x1, x1, #2, #27
 4023960:	b8606820 	ldr	w0, [x1,x0]
 4023964:	d65f03c0 	ret

0000000004023968 <gicd_write_igroupr>:
 4023968:	53057c21 	lsr	w1, w1, #5
 402396c:	91020000 	add	x0, x0, #0x80
 4023970:	d37e6821 	ubfiz	x1, x1, #2, #27
 4023974:	b8206822 	str	w2, [x1,x0]
 4023978:	d65f03c0 	ret

000000000402397c <gicd_write_isenabler>:
 402397c:	53057c21 	lsr	w1, w1, #5
 4023980:	91040000 	add	x0, x0, #0x100
 4023984:	d37e6821 	ubfiz	x1, x1, #2, #27
 4023988:	b8206822 	str	w2, [x1,x0]
 402398c:	d65f03c0 	ret

0000000004023990 <gicd_write_ipriorityr>:
 4023990:	927e7421 	and	x1, x1, #0xfffffffc
 4023994:	91100000 	add	x0, x0, #0x400
 4023998:	b8206822 	str	w2, [x1,x0]
 402399c:	d65f03c0 	ret

00000000040239a0 <gicd_write_icfgr>:
 40239a0:	53047c21 	lsr	w1, w1, #4
 40239a4:	91300000 	add	x0, x0, #0xc00
 40239a8:	d37e6c21 	ubfiz	x1, x1, #2, #28
 40239ac:	b8206822 	str	w2, [x1,x0]
 40239b0:	d65f03c0 	ret

00000000040239b4 <gicd_clr_igroupr>:
 40239b4:	a9bf7bfd 	stp	x29, x30, [sp,#-16]!
 40239b8:	2a0103e3 	mov	w3, w1
 40239bc:	aa0003e4 	mov	x4, x0
 40239c0:	910003fd 	mov	x29, sp
 40239c4:	97ffffe4 	bl	4023954 <gicd_read_igroupr>
 40239c8:	2a0303e1 	mov	w1, w3
 40239cc:	52800022 	mov	w2, #0x1                   	// #1
 40239d0:	1ac32042 	lsl	w2, w2, w3
 40239d4:	a8c17bfd 	ldp	x29, x30, [sp],#16
 40239d8:	0a220002 	bic	w2, w0, w2
 40239dc:	aa0403e0 	mov	x0, x4
 40239e0:	17ffffe2 	b	4023968 <gicd_write_igroupr>

00000000040239e4 <gicd_set_isenabler>:
 40239e4:	52800022 	mov	w2, #0x1                   	// #1
 40239e8:	1ac12042 	lsl	w2, w2, w1
 40239ec:	17ffffe4 	b	402397c <gicd_write_isenabler>

00000000040239f0 <gicv3_driver_init>:
 40239f0:	a9be7bfd 	stp	x29, x30, [sp,#-32]!
 40239f4:	910003fd 	mov	x29, sp
 40239f8:	f9000bf3 	str	x19, [sp,#16]
 40239fc:	b50000a0 	cbnz	x0, 4023a10 <gicv3_driver_init+0x20>
 4023a00:	90000023 	adrp	x3, 4027000 <do_cpu_reg_dump+0x10>
 4023a04:	52800642 	mov	w2, #0x32                  	// #50
 4023a08:	91240c63 	add	x3, x3, #0x903
 4023a0c:	14000007 	b	4023a28 <gicv3_driver_init+0x38>
 4023a10:	f9400003 	ldr	x3, [x0]
 4023a14:	aa0003f3 	mov	x19, x0
 4023a18:	b5000123 	cbnz	x3, 4023a3c <gicv3_driver_init+0x4c>
 4023a1c:	90000023 	adrp	x3, 4027000 <do_cpu_reg_dump+0x10>
 4023a20:	52800662 	mov	w2, #0x33                  	// #51
 4023a24:	9124d063 	add	x3, x3, #0x934
 4023a28:	90000021 	adrp	x1, 4027000 <do_cpu_reg_dump+0x10>
 4023a2c:	90000020 	adrp	x0, 4027000 <do_cpu_reg_dump+0x10>
 4023a30:	91245021 	add	x1, x1, #0x914
 4023a34:	91302000 	add	x0, x0, #0xc08
 4023a38:	94000b9b 	bl	40268a4 <__assert>
 4023a3c:	f9400402 	ldr	x2, [x0,#8]
 4023a40:	b50000a2 	cbnz	x2, 4023a54 <gicv3_driver_init+0x64>
 4023a44:	90000023 	adrp	x3, 4027000 <do_cpu_reg_dump+0x10>
 4023a48:	52800682 	mov	w2, #0x34                  	// #52
 4023a4c:	91254063 	add	x3, x3, #0x950
 4023a50:	17fffff6 	b	4023a28 <gicv3_driver_init+0x38>
 4023a54:	b9402801 	ldr	w1, [x0,#40]
 4023a58:	350000a1 	cbnz	w1, 4023a6c <gicv3_driver_init+0x7c>
 4023a5c:	90000023 	adrp	x3, 4027000 <do_cpu_reg_dump+0x10>
 4023a60:	528006a2 	mov	w2, #0x35                  	// #53
 4023a64:	9125b063 	add	x3, x3, #0x96c
 4023a68:	17fffff0 	b	4023a28 <gicv3_driver_init+0x38>
 4023a6c:	f9401800 	ldr	x0, [x0,#48]
 4023a70:	b50000a0 	cbnz	x0, 4023a84 <gicv3_driver_init+0x94>
 4023a74:	90000023 	adrp	x3, 4027000 <do_cpu_reg_dump+0x10>
 4023a78:	528006c2 	mov	w2, #0x36                  	// #54
 4023a7c:	91262863 	add	x3, x3, #0x98a
 4023a80:	17ffffea 	b	4023a28 <gicv3_driver_init+0x38>
 4023a84:	d5384244 	mrs	x4, currentel
 4023a88:	d3420c84 	ubfx	x4, x4, #2, #2
 4023a8c:	f1000c9f 	cmp	x4, #0x3
 4023a90:	540000a0 	b.eq	4023aa4 <gicv3_driver_init+0xb4>
 4023a94:	90000023 	adrp	x3, 4027000 <do_cpu_reg_dump+0x10>
 4023a98:	52800702 	mov	w2, #0x38                  	// #56
 4023a9c:	9126bc63 	add	x3, x3, #0x9af
 4023aa0:	17ffffe2 	b	4023a28 <gicv3_driver_init+0x38>
 4023aa4:	f9400e64 	ldr	x4, [x19,#24]
 4023aa8:	b50000e4 	cbnz	x4, 4023ac4 <gicv3_driver_init+0xd4>
 4023aac:	f9401264 	ldr	x4, [x19,#32]
 4023ab0:	b5000104 	cbnz	x4, 4023ad0 <gicv3_driver_init+0xe0>
 4023ab4:	90000023 	adrp	x3, 4027000 <do_cpu_reg_dump+0x10>
 4023ab8:	528007e2 	mov	w2, #0x3f                  	// #63
 4023abc:	9126ec63 	add	x3, x3, #0x9bb
 4023ac0:	17ffffda 	b	4023a28 <gicv3_driver_init+0x38>
 4023ac4:	b9401264 	ldr	w4, [x19,#16]
 4023ac8:	35000104 	cbnz	w4, 4023ae8 <gicv3_driver_init+0xf8>
 4023acc:	14000003 	b	4023ad8 <gicv3_driver_init+0xe8>
 4023ad0:	b9401264 	ldr	w4, [x19,#16]
 4023ad4:	340000e4 	cbz	w4, 4023af0 <gicv3_driver_init+0x100>
 4023ad8:	90000023 	adrp	x3, 4027000 <do_cpu_reg_dump+0x10>
 4023adc:	528008e2 	mov	w2, #0x47                  	// #71
 4023ae0:	91282463 	add	x3, x3, #0xa09
 4023ae4:	17ffffd1 	b	4023a28 <gicv3_driver_init+0x38>
 4023ae8:	f9401264 	ldr	x4, [x19,#32]
 4023aec:	b40000a4 	cbz	x4, 4023b00 <gicv3_driver_init+0x110>
 4023af0:	b9401664 	ldr	w4, [x19,#20]
 4023af4:	6b1f009f 	cmp	w4, wzr
 4023af8:	1a9f07e4 	cset	w4, ne
 4023afc:	14000004 	b	4023b0c <gicv3_driver_init+0x11c>
 4023b00:	b9401664 	ldr	w4, [x19,#20]
 4023b04:	6b1f009f 	cmp	w4, wzr
 4023b08:	1a9f17e4 	cset	w4, eq
 4023b0c:	350000a4 	cbnz	w4, 4023b20 <gicv3_driver_init+0x130>
 4023b10:	90000023 	adrp	x3, 4027000 <do_cpu_reg_dump+0x10>
 4023b14:	52800942 	mov	w2, #0x4a                  	// #74
 4023b18:	9129f463 	add	x3, x3, #0xa7d
 4023b1c:	17ffffc3 	b	4023a28 <gicv3_driver_init+0x38>
 4023b20:	d5380404 	mrs	x4, id_aa64pfr0_el1
 4023b24:	f2680c9f 	tst	x4, #0xf000000
 4023b28:	540000a1 	b.ne	4023b3c <gicv3_driver_init+0x14c>
 4023b2c:	90000023 	adrp	x3, 4027000 <do_cpu_reg_dump+0x10>
 4023b30:	528009c2 	mov	w2, #0x4e                  	// #78
 4023b34:	912bd063 	add	x3, x3, #0xaf4
 4023b38:	17ffffbc 	b	4023a28 <gicv3_driver_init+0x38>
 4023b3c:	91403c64 	add	x4, x3, #0xf, lsl #12
 4023b40:	b94fe884 	ldr	w4, [x4,#4072]
 4023b44:	d3441c84 	ubfx	x4, x4, #4, #4
 4023b48:	71000c9f 	cmp	w4, #0x3
 4023b4c:	540000a0 	b.eq	4023b60 <gicv3_driver_init+0x170>
 4023b50:	90000023 	adrp	x3, 4027000 <do_cpu_reg_dump+0x10>
 4023b54:	52800a82 	mov	w2, #0x54                  	// #84
 4023b58:	912cf463 	add	x3, x3, #0xb3d
 4023b5c:	17ffffb3 	b	4023a28 <gicv3_driver_init+0x38>
 4023b60:	b9400063 	ldr	w3, [x3]
 4023b64:	f9401e63 	ldr	x3, [x19,#56]
 4023b68:	9400013f 	bl	4024064 <gicv3_rdistif_base_addrs_probe>
 4023b6c:	f0000020 	adrp	x0, 402a000 <__RO_END_UNALIGNED__>
 4023b70:	f9058813 	str	x19, [x0,#2832]
 4023b74:	f9400bf3 	ldr	x19, [sp,#16]
 4023b78:	a8c27bfd 	ldp	x29, x30, [sp],#32
 4023b7c:	d65f03c0 	ret

0000000004023b80 <gicv3_distif_init>:
 4023b80:	a9be7bfd 	stp	x29, x30, [sp,#-32]!
 4023b84:	910003fd 	mov	x29, sp
 4023b88:	f9000bf3 	str	x19, [sp,#16]
 4023b8c:	f0000033 	adrp	x19, 402a000 <__RO_END_UNALIGNED__>
 4023b90:	f9458a61 	ldr	x1, [x19,#2832]
 4023b94:	b50000a1 	cbnz	x1, 4023ba8 <gicv3_distif_init+0x28>
 4023b98:	90000023 	adrp	x3, 4027000 <do_cpu_reg_dump+0x10>
 4023b9c:	52800ec2 	mov	w2, #0x76                  	// #118
 4023ba0:	91242063 	add	x3, x3, #0x908
 4023ba4:	14000006 	b	4023bbc <gicv3_distif_init+0x3c>
 4023ba8:	f9400020 	ldr	x0, [x1]
 4023bac:	b5000120 	cbnz	x0, 4023bd0 <gicv3_distif_init+0x50>
 4023bb0:	90000023 	adrp	x3, 4027000 <do_cpu_reg_dump+0x10>
 4023bb4:	52800ee2 	mov	w2, #0x77                  	// #119
 4023bb8:	9124e463 	add	x3, x3, #0x939
 4023bbc:	90000021 	adrp	x1, 4027000 <do_cpu_reg_dump+0x10>
 4023bc0:	90000020 	adrp	x0, 4027000 <do_cpu_reg_dump+0x10>
 4023bc4:	91245021 	add	x1, x1, #0x914
 4023bc8:	91308000 	add	x0, x0, #0xc20
 4023bcc:	94000b36 	bl	40268a4 <__assert>
 4023bd0:	f9401022 	ldr	x2, [x1,#32]
 4023bd4:	b50000a2 	cbnz	x2, 4023be8 <gicv3_distif_init+0x68>
 4023bd8:	90000023 	adrp	x3, 4027000 <do_cpu_reg_dump+0x10>
 4023bdc:	52800f02 	mov	w2, #0x78                  	// #120
 4023be0:	9127a063 	add	x3, x3, #0x9e8
 4023be4:	17fffff6 	b	4023bbc <gicv3_distif_init+0x3c>
 4023be8:	f9400c21 	ldr	x1, [x1,#24]
 4023bec:	b50000a1 	cbnz	x1, 4023c00 <gicv3_distif_init+0x80>
 4023bf0:	90000023 	adrp	x3, 4027000 <do_cpu_reg_dump+0x10>
 4023bf4:	52800f22 	mov	w2, #0x79                  	// #121
 4023bf8:	912d6c63 	add	x3, x3, #0xb5b
 4023bfc:	17fffff0 	b	4023bbc <gicv3_distif_init+0x3c>
 4023c00:	d5384241 	mrs	x1, currentel
 4023c04:	d3420c21 	ubfx	x1, x1, #2, #2
 4023c08:	f1000c3f 	cmp	x1, #0x3
 4023c0c:	540000a0 	b.eq	4023c20 <gicv3_distif_init+0xa0>
 4023c10:	90000023 	adrp	x3, 4027000 <do_cpu_reg_dump+0x10>
 4023c14:	52800f62 	mov	w2, #0x7b                  	// #123
 4023c18:	9126bc63 	add	x3, x3, #0x9af
 4023c1c:	17ffffe8 	b	4023bbc <gicv3_distif_init+0x3c>
 4023c20:	b9400001 	ldr	w1, [x0]
 4023c24:	121d7021 	and	w1, w1, #0xfffffff8
 4023c28:	b9000001 	str	w1, [x0]
 4023c2c:	b9400001 	ldr	w1, [x0]
 4023c30:	37ffffe1 	tbnz	w1, #31, 4023c2c <gicv3_distif_init+0xac>
 4023c34:	b9400001 	ldr	w1, [x0]
 4023c38:	321c0421 	orr	w1, w1, #0x30
 4023c3c:	b9000001 	str	w1, [x0]
 4023c40:	b9400001 	ldr	w1, [x0]
 4023c44:	37ffffe1 	tbnz	w1, #31, 4023c40 <gicv3_distif_init+0xc0>
 4023c48:	9400012e 	bl	4024100 <gicv3_spis_configure_defaults>
 4023c4c:	f9458a60 	ldr	x0, [x19,#2832]
 4023c50:	52800003 	mov	w3, #0x0                   	// #0
 4023c54:	b9401401 	ldr	w1, [x0,#20]
 4023c58:	f9401002 	ldr	x2, [x0,#32]
 4023c5c:	f9400000 	ldr	x0, [x0]
 4023c60:	9400014f 	bl	402419c <gicv3_secure_spis_configure>
 4023c64:	f9458a60 	ldr	x0, [x19,#2832]
 4023c68:	52800023 	mov	w3, #0x1                   	// #1
 4023c6c:	b9401001 	ldr	w1, [x0,#16]
 4023c70:	f9400c02 	ldr	x2, [x0,#24]
 4023c74:	f9400000 	ldr	x0, [x0]
 4023c78:	94000149 	bl	402419c <gicv3_secure_spis_configure>
 4023c7c:	f9458a60 	ldr	x0, [x19,#2832]
 4023c80:	528000a1 	mov	w1, #0x5                   	// #5
 4023c84:	f9400000 	ldr	x0, [x0]
 4023c88:	b9400002 	ldr	w2, [x0]
 4023c8c:	2a010041 	orr	w1, w2, w1
 4023c90:	b9000001 	str	w1, [x0]
 4023c94:	b9400001 	ldr	w1, [x0]
 4023c98:	37ffffe1 	tbnz	w1, #31, 4023c94 <gicv3_distif_init+0x114>
 4023c9c:	f9400bf3 	ldr	x19, [sp,#16]
 4023ca0:	a8c27bfd 	ldp	x29, x30, [sp],#32
 4023ca4:	d65f03c0 	ret

0000000004023ca8 <gicv3_rdistif_init>:
 4023ca8:	a9be7bfd 	stp	x29, x30, [sp,#-32]!
 4023cac:	910003fd 	mov	x29, sp
 4023cb0:	a90153f3 	stp	x19, x20, [sp,#16]
 4023cb4:	f0000034 	adrp	x20, 402a000 <__RO_END_UNALIGNED__>
 4023cb8:	f9458a81 	ldr	x1, [x20,#2832]
 4023cbc:	b50000a1 	cbnz	x1, 4023cd0 <gicv3_rdistif_init+0x28>
 4023cc0:	90000023 	adrp	x3, 4027000 <do_cpu_reg_dump+0x10>
 4023cc4:	52801542 	mov	w2, #0xaa                  	// #170
 4023cc8:	91242063 	add	x3, x3, #0x908
 4023ccc:	14000007 	b	4023ce8 <gicv3_rdistif_init+0x40>
 4023cd0:	b9402822 	ldr	w2, [x1,#40]
 4023cd4:	6b00005f 	cmp	w2, w0
 4023cd8:	54000128 	b.hi	4023cfc <gicv3_rdistif_init+0x54>
 4023cdc:	90000023 	adrp	x3, 4027000 <do_cpu_reg_dump+0x10>
 4023ce0:	52801562 	mov	w2, #0xab                  	// #171
 4023ce4:	912dec63 	add	x3, x3, #0xb7b
 4023ce8:	90000021 	adrp	x1, 4027000 <do_cpu_reg_dump+0x10>
 4023cec:	90000020 	adrp	x0, 4027000 <do_cpu_reg_dump+0x10>
 4023cf0:	91245021 	add	x1, x1, #0x914
 4023cf4:	9123c000 	add	x0, x0, #0x8f0
 4023cf8:	94000aeb 	bl	40268a4 <__assert>
 4023cfc:	f9401822 	ldr	x2, [x1,#48]
 4023d00:	b50000a2 	cbnz	x2, 4023d14 <gicv3_rdistif_init+0x6c>
 4023d04:	90000023 	adrp	x3, 4027000 <do_cpu_reg_dump+0x10>
 4023d08:	52801582 	mov	w2, #0xac                  	// #172
 4023d0c:	91263c63 	add	x3, x3, #0x98f
 4023d10:	17fffff6 	b	4023ce8 <gicv3_rdistif_init+0x40>
 4023d14:	f9400023 	ldr	x3, [x1]
 4023d18:	b50000a3 	cbnz	x3, 4023d2c <gicv3_rdistif_init+0x84>
 4023d1c:	90000023 	adrp	x3, 4027000 <do_cpu_reg_dump+0x10>
 4023d20:	528015a2 	mov	w2, #0xad                  	// #173
 4023d24:	9124e463 	add	x3, x3, #0x939
 4023d28:	17fffff0 	b	4023ce8 <gicv3_rdistif_init+0x40>
 4023d2c:	b9400063 	ldr	w3, [x3]
 4023d30:	372000a3 	tbnz	w3, #4, 4023d44 <gicv3_rdistif_init+0x9c>
 4023d34:	90000023 	adrp	x3, 4027000 <do_cpu_reg_dump+0x10>
 4023d38:	528015c2 	mov	w2, #0xae                  	// #174
 4023d3c:	912e7c63 	add	x3, x3, #0xb9f
 4023d40:	17ffffea 	b	4023ce8 <gicv3_rdistif_init+0x40>
 4023d44:	f9401023 	ldr	x3, [x1,#32]
 4023d48:	b50000a3 	cbnz	x3, 4023d5c <gicv3_rdistif_init+0xb4>
 4023d4c:	90000023 	adrp	x3, 4027000 <do_cpu_reg_dump+0x10>
 4023d50:	528015e2 	mov	w2, #0xaf                  	// #175
 4023d54:	9127a063 	add	x3, x3, #0x9e8
 4023d58:	17ffffe4 	b	4023ce8 <gicv3_rdistif_init+0x40>
 4023d5c:	f9400c21 	ldr	x1, [x1,#24]
 4023d60:	b50000a1 	cbnz	x1, 4023d74 <gicv3_rdistif_init+0xcc>
 4023d64:	90000023 	adrp	x3, 4027000 <do_cpu_reg_dump+0x10>
 4023d68:	52801602 	mov	w2, #0xb0                  	// #176
 4023d6c:	912d6c63 	add	x3, x3, #0xb5b
 4023d70:	17ffffde 	b	4023ce8 <gicv3_rdistif_init+0x40>
 4023d74:	d5384241 	mrs	x1, currentel
 4023d78:	d3420c21 	ubfx	x1, x1, #2, #2
 4023d7c:	f1000c3f 	cmp	x1, #0x3
 4023d80:	540000a0 	b.eq	4023d94 <gicv3_rdistif_init+0xec>
 4023d84:	90000023 	adrp	x3, 4027000 <do_cpu_reg_dump+0x10>
 4023d88:	52801642 	mov	w2, #0xb2                  	// #178
 4023d8c:	9126bc63 	add	x3, x3, #0x9af
 4023d90:	17ffffd6 	b	4023ce8 <gicv3_rdistif_init+0x40>
 4023d94:	f8605853 	ldr	x19, [x2,w0,uxtw #3]
 4023d98:	aa1303e0 	mov	x0, x19
 4023d9c:	94000141 	bl	40242a0 <gicv3_ppi_sgi_configure_defaults>
 4023da0:	f9458a80 	ldr	x0, [x20,#2832]
 4023da4:	52800003 	mov	w3, #0x0                   	// #0
 4023da8:	b9401401 	ldr	w1, [x0,#20]
 4023dac:	f9401002 	ldr	x2, [x0,#32]
 4023db0:	aa1303e0 	mov	x0, x19
 4023db4:	94000150 	bl	40242f4 <gicv3_secure_ppi_sgi_configure>
 4023db8:	f9458a80 	ldr	x0, [x20,#2832]
 4023dbc:	52800023 	mov	w3, #0x1                   	// #1
 4023dc0:	b9401001 	ldr	w1, [x0,#16]
 4023dc4:	f9400c02 	ldr	x2, [x0,#24]
 4023dc8:	aa1303e0 	mov	x0, x19
 4023dcc:	a94153f3 	ldp	x19, x20, [sp,#16]
 4023dd0:	a8c27bfd 	ldp	x29, x30, [sp],#32
 4023dd4:	14000148 	b	40242f4 <gicv3_secure_ppi_sgi_configure>

0000000004023dd8 <gicv3_cpuif_enable>:
 4023dd8:	f0000021 	adrp	x1, 402a000 <__RO_END_UNALIGNED__>
 4023ddc:	a9bf7bfd 	stp	x29, x30, [sp,#-16]!
 4023de0:	910003fd 	mov	x29, sp
 4023de4:	f9458821 	ldr	x1, [x1,#2832]
 4023de8:	b50000a1 	cbnz	x1, 4023dfc <gicv3_cpuif_enable+0x24>
 4023dec:	90000023 	adrp	x3, 4027000 <do_cpu_reg_dump+0x10>
 4023df0:	52801a02 	mov	w2, #0xd0                  	// #208
 4023df4:	91242063 	add	x3, x3, #0x908
 4023df8:	14000007 	b	4023e14 <gicv3_cpuif_enable+0x3c>
 4023dfc:	b9402822 	ldr	w2, [x1,#40]
 4023e00:	6b00005f 	cmp	w2, w0
 4023e04:	54000128 	b.hi	4023e28 <gicv3_cpuif_enable+0x50>
 4023e08:	90000023 	adrp	x3, 4027000 <do_cpu_reg_dump+0x10>
 4023e0c:	52801a22 	mov	w2, #0xd1                  	// #209
 4023e10:	912dec63 	add	x3, x3, #0xb7b
 4023e14:	90000021 	adrp	x1, 4027000 <do_cpu_reg_dump+0x10>
 4023e18:	90000020 	adrp	x0, 4027000 <do_cpu_reg_dump+0x10>
 4023e1c:	91245021 	add	x1, x1, #0x914
 4023e20:	9130e000 	add	x0, x0, #0xc38
 4023e24:	94000aa0 	bl	40268a4 <__assert>
 4023e28:	f9401822 	ldr	x2, [x1,#48]
 4023e2c:	b50000a2 	cbnz	x2, 4023e40 <gicv3_cpuif_enable+0x68>
 4023e30:	90000023 	adrp	x3, 4027000 <do_cpu_reg_dump+0x10>
 4023e34:	52801a42 	mov	w2, #0xd2                  	// #210
 4023e38:	91263c63 	add	x3, x3, #0x98f
 4023e3c:	17fffff6 	b	4023e14 <gicv3_cpuif_enable+0x3c>
 4023e40:	d5384241 	mrs	x1, currentel
 4023e44:	d3420c21 	ubfx	x1, x1, #2, #2
 4023e48:	f1000c3f 	cmp	x1, #0x3
 4023e4c:	540000a0 	b.eq	4023e60 <gicv3_cpuif_enable+0x88>
 4023e50:	90000023 	adrp	x3, 4027000 <do_cpu_reg_dump+0x10>
 4023e54:	52801a62 	mov	w2, #0xd3                  	// #211
 4023e58:	9126bc63 	add	x3, x3, #0x9af
 4023e5c:	17ffffee 	b	4023e14 <gicv3_cpuif_enable+0x3c>
 4023e60:	f8605840 	ldr	x0, [x2,w0,uxtw #3]
 4023e64:	9400006d 	bl	4024018 <gicv3_rdistif_mark_core_awake>
 4023e68:	d53ecca0 	mrs	x0, s3_6_c12_c12_5
 4023e6c:	b2400c00 	orr	x0, x0, #0xf
 4023e70:	d51ecca0 	msr	s3_6_c12_c12_5, x0
 4023e74:	d53e1100 	mrs	x0, scr_el3
 4023e78:	32000001 	orr	w1, w0, #0x1
 4023e7c:	d51e1101 	msr	scr_el3, x1
 4023e80:	d5033fdf 	isb
 4023e84:	d53cc9a1 	mrs	x1, s3_4_c12_c9_5
 4023e88:	b2400c21 	orr	x1, x1, #0xf
 4023e8c:	d51cc9a1 	msr	s3_4_c12_c9_5, x1
 4023e90:	d2800021 	mov	x1, #0x1                   	// #1
 4023e94:	d518cca1 	msr	s3_0_c12_c12_5, x1
 4023e98:	d5033fdf 	isb
 4023e9c:	927f7800 	and	x0, x0, #0xfffffffe
 4023ea0:	d51e1100 	msr	scr_el3, x0
 4023ea4:	d5033fdf 	isb
 4023ea8:	d2801fe0 	mov	x0, #0xff                  	// #255
 4023eac:	d5184600 	msr	s3_0_c4_c6_0, x0
 4023eb0:	d518ccc1 	msr	s3_0_c12_c12_6, x1
 4023eb4:	d53ecce0 	mrs	x0, s3_6_c12_c12_7
 4023eb8:	b27f0000 	orr	x0, x0, #0x2
 4023ebc:	d51ecce0 	msr	s3_6_c12_c12_7, x0
 4023ec0:	d518cca1 	msr	s3_0_c12_c12_5, x1
 4023ec4:	d5033fdf 	isb
 4023ec8:	a8c17bfd 	ldp	x29, x30, [sp],#16
 4023ecc:	d65f03c0 	ret

0000000004023ed0 <gicv3_get_pending_interrupt_type>:
 4023ed0:	d5384240 	mrs	x0, currentel
 4023ed4:	d3420c00 	ubfx	x0, x0, #2, #2
 4023ed8:	f1000c1f 	cmp	x0, #0x3
 4023edc:	54000160 	b.eq	4023f08 <gicv3_get_pending_interrupt_type+0x38>
 4023ee0:	a9bf7bfd 	stp	x29, x30, [sp,#-16]!
 4023ee4:	90000023 	adrp	x3, 4027000 <do_cpu_reg_dump+0x10>
 4023ee8:	90000021 	adrp	x1, 4027000 <do_cpu_reg_dump+0x10>
 4023eec:	90000020 	adrp	x0, 4027000 <do_cpu_reg_dump+0x10>
 4023ef0:	910003fd 	mov	x29, sp
 4023ef4:	9126bc63 	add	x3, x3, #0x9af
 4023ef8:	528028c2 	mov	w2, #0x146                 	// #326
 4023efc:	91245021 	add	x1, x1, #0x914
 4023f00:	91232000 	add	x0, x0, #0x8c8
 4023f04:	94000a68 	bl	40268a4 <__assert>
 4023f08:	d538c840 	mrs	x0, s3_0_c12_c8_2
 4023f0c:	12005c00 	and	w0, w0, #0xffffff
 4023f10:	d65f03c0 	ret

0000000004023f14 <gicd_read_igrpmodr>:
 4023f14:	53057c21 	lsr	w1, w1, #5
 4023f18:	91340000 	add	x0, x0, #0xd00
 4023f1c:	d37e6821 	ubfiz	x1, x1, #2, #27
 4023f20:	b8606820 	ldr	w0, [x1,x0]
 4023f24:	d65f03c0 	ret

0000000004023f28 <gicd_write_igrpmodr>:
 4023f28:	53057c21 	lsr	w1, w1, #5
 4023f2c:	91340000 	add	x0, x0, #0xd00
 4023f30:	d37e6821 	ubfiz	x1, x1, #2, #27
 4023f34:	b8206822 	str	w2, [x1,x0]
 4023f38:	d65f03c0 	ret

0000000004023f3c <gicd_set_igrpmodr>:
 4023f3c:	a9bf7bfd 	stp	x29, x30, [sp,#-16]!
 4023f40:	2a0103e3 	mov	w3, w1
 4023f44:	aa0003e4 	mov	x4, x0
 4023f48:	910003fd 	mov	x29, sp
 4023f4c:	97fffff2 	bl	4023f14 <gicd_read_igrpmodr>
 4023f50:	2a0303e1 	mov	w1, w3
 4023f54:	52800022 	mov	w2, #0x1                   	// #1
 4023f58:	1ac32042 	lsl	w2, w2, w3
 4023f5c:	a8c17bfd 	ldp	x29, x30, [sp],#16
 4023f60:	2a000042 	orr	w2, w2, w0
 4023f64:	aa0403e0 	mov	x0, x4
 4023f68:	17fffff0 	b	4023f28 <gicd_write_igrpmodr>

0000000004023f6c <gicd_clr_igrpmodr>:
 4023f6c:	a9bf7bfd 	stp	x29, x30, [sp,#-16]!
 4023f70:	2a0103e3 	mov	w3, w1
 4023f74:	aa0003e4 	mov	x4, x0
 4023f78:	910003fd 	mov	x29, sp
 4023f7c:	97ffffe6 	bl	4023f14 <gicd_read_igrpmodr>
 4023f80:	2a0303e1 	mov	w1, w3
 4023f84:	52800022 	mov	w2, #0x1                   	// #1
 4023f88:	1ac32042 	lsl	w2, w2, w3
 4023f8c:	a8c17bfd 	ldp	x29, x30, [sp],#16
 4023f90:	0a220002 	bic	w2, w0, w2
 4023f94:	aa0403e0 	mov	x0, x4
 4023f98:	17ffffe4 	b	4023f28 <gicd_write_igrpmodr>

0000000004023f9c <gicr_write_ipriorityr>:
 4023f9c:	91404000 	add	x0, x0, #0x10, lsl #12
 4023fa0:	927e7421 	and	x1, x1, #0xfffffffc
 4023fa4:	91100000 	add	x0, x0, #0x400
 4023fa8:	b8206822 	str	w2, [x1,x0]
 4023fac:	d65f03c0 	ret

0000000004023fb0 <gicr_clr_igroupr0>:
 4023fb0:	91404000 	add	x0, x0, #0x10, lsl #12
 4023fb4:	52800022 	mov	w2, #0x1                   	// #1
 4023fb8:	1ac12041 	lsl	w1, w2, w1
 4023fbc:	b9408003 	ldr	w3, [x0,#128]
 4023fc0:	0a210061 	bic	w1, w3, w1
 4023fc4:	b9008001 	str	w1, [x0,#128]
 4023fc8:	d65f03c0 	ret

0000000004023fcc <gicr_set_igrpmodr0>:
 4023fcc:	91404000 	add	x0, x0, #0x10, lsl #12
 4023fd0:	52800023 	mov	w3, #0x1                   	// #1
 4023fd4:	1ac12061 	lsl	w1, w3, w1
 4023fd8:	b94d0002 	ldr	w2, [x0,#3328]
 4023fdc:	2a020022 	orr	w2, w1, w2
 4023fe0:	b90d0002 	str	w2, [x0,#3328]
 4023fe4:	d65f03c0 	ret

0000000004023fe8 <gicr_clr_igrpmodr0>:
 4023fe8:	91404000 	add	x0, x0, #0x10, lsl #12
 4023fec:	52800022 	mov	w2, #0x1                   	// #1
 4023ff0:	1ac12041 	lsl	w1, w2, w1
 4023ff4:	b94d0003 	ldr	w3, [x0,#3328]
 4023ff8:	0a210061 	bic	w1, w3, w1
 4023ffc:	b90d0001 	str	w1, [x0,#3328]
 4024000:	d65f03c0 	ret

0000000004024004 <gicr_set_isenabler0>:
 4024004:	91404000 	add	x0, x0, #0x10, lsl #12
 4024008:	52800022 	mov	w2, #0x1                   	// #1
 402400c:	1ac12041 	lsl	w1, w2, w1
 4024010:	b9010001 	str	w1, [x0,#256]
 4024014:	d65f03c0 	ret

0000000004024018 <gicv3_rdistif_mark_core_awake>:
 4024018:	b9401401 	ldr	w1, [x0,#20]
 402401c:	37100161 	tbnz	w1, #2, 4024048 <gicv3_rdistif_mark_core_awake+0x30>
 4024020:	a9bf7bfd 	stp	x29, x30, [sp,#-16]!
 4024024:	f0000003 	adrp	x3, 4027000 <do_cpu_reg_dump+0x10>
 4024028:	f0000001 	adrp	x1, 4027000 <do_cpu_reg_dump+0x10>
 402402c:	f0000000 	adrp	x0, 4027000 <do_cpu_reg_dump+0x10>
 4024030:	910003fd 	mov	x29, sp
 4024034:	9132bc63 	add	x3, x3, #0xcaf
 4024038:	528019e2 	mov	w2, #0xcf                  	// #207
 402403c:	91336421 	add	x1, x1, #0xcd9
 4024040:	91314000 	add	x0, x0, #0xc50
 4024044:	94000a18 	bl	40268a4 <__assert>
 4024048:	b9401401 	ldr	w1, [x0,#20]
 402404c:	91005002 	add	x2, x0, #0x14
 4024050:	121e7821 	and	w1, w1, #0xfffffffd
 4024054:	b9001401 	str	w1, [x0,#20]
 4024058:	b9400040 	ldr	w0, [x2]
 402405c:	3717ffe0 	tbnz	w0, #2, 4024058 <gicv3_rdistif_mark_core_awake+0x40>
 4024060:	d65f03c0 	ret

0000000004024064 <gicv3_rdistif_base_addrs_probe>:
 4024064:	a9bc7bfd 	stp	x29, x30, [sp,#-64]!
 4024068:	910003fd 	mov	x29, sp
 402406c:	a90153f3 	stp	x19, x20, [sp,#16]
 4024070:	a9025bf5 	stp	x21, x22, [sp,#32]
 4024074:	f9001bf7 	str	x23, [sp,#48]
 4024078:	b50000a0 	cbnz	x0, 402408c <gicv3_rdistif_base_addrs_probe+0x28>
 402407c:	f0000003 	adrp	x3, 4027000 <do_cpu_reg_dump+0x10>
 4024080:	52801f02 	mov	w2, #0xf8                  	// #248
 4024084:	91267063 	add	x3, x3, #0x99c
 4024088:	14000011 	b	40240cc <gicv3_rdistif_base_addrs_probe+0x68>
 402408c:	aa0003f5 	mov	x21, x0
 4024090:	2a0103f7 	mov	w23, w1
 4024094:	aa0203f4 	mov	x20, x2
 4024098:	aa0303f6 	mov	x22, x3
 402409c:	f9400693 	ldr	x19, [x20,#8]
 40240a0:	d3485e60 	ubfx	x0, x19, #8, #16
 40240a4:	b40000b6 	cbz	x22, 40240b8 <gicv3_rdistif_base_addrs_probe+0x54>
 40240a8:	d378fe60 	lsr	x0, x19, #56
 40240ac:	d360de61 	ubfx	x1, x19, #32, #24
 40240b0:	aa008020 	orr	x0, x1, x0, lsl #32
 40240b4:	d63f02c0 	blr	x22
 40240b8:	6b17001f 	cmp	w0, w23
 40240bc:	54000123 	b.cc	40240e0 <gicv3_rdistif_base_addrs_probe+0x7c>
 40240c0:	f0000003 	adrp	x3, 4027000 <do_cpu_reg_dump+0x10>
 40240c4:	52802142 	mov	w2, #0x10a                 	// #266
 40240c8:	9133f063 	add	x3, x3, #0xcfc
 40240cc:	f0000001 	adrp	x1, 4027000 <do_cpu_reg_dump+0x10>
 40240d0:	f0000000 	adrp	x0, 4027000 <do_cpu_reg_dump+0x10>
 40240d4:	91336421 	add	x1, x1, #0xcd9
 40240d8:	91324000 	add	x0, x0, #0xc90
 40240dc:	940009f2 	bl	40268a4 <__assert>
 40240e0:	f8205ab4 	str	x20, [x21,w0,uxtw #3]
 40240e4:	91408294 	add	x20, x20, #0x20, lsl #12
 40240e8:	3627fdb3 	tbz	w19, #4, 402409c <gicv3_rdistif_base_addrs_probe+0x38>
 40240ec:	a94153f3 	ldp	x19, x20, [sp,#16]
 40240f0:	a9425bf5 	ldp	x21, x22, [sp,#32]
 40240f4:	f9401bf7 	ldr	x23, [sp,#48]
 40240f8:	a8c47bfd 	ldp	x29, x30, [sp],#64
 40240fc:	d65f03c0 	ret

0000000004024100 <gicv3_spis_configure_defaults>:
 4024100:	a9bd7bfd 	stp	x29, x30, [sp,#-48]!
 4024104:	910003fd 	mov	x29, sp
 4024108:	a90153f3 	stp	x19, x20, [sp,#16]
 402410c:	b9400413 	ldr	w19, [x0,#4]
 4024110:	52800414 	mov	w20, #0x20                  	// #32
 4024114:	f90013f5 	str	x21, [sp,#32]
 4024118:	aa0003f5 	mov	x21, x0
 402411c:	531b1273 	ubfiz	w19, w19, #5, #5
 4024120:	11008273 	add	w19, w19, #0x20
 4024124:	6b13029f 	cmp	w20, w19
 4024128:	540000e2 	b.cs	4024144 <gicv3_spis_configure_defaults+0x44>
 402412c:	2a1403e1 	mov	w1, w20
 4024130:	12800002 	mov	w2, #0xffffffff            	// #-1
 4024134:	aa1503e0 	mov	x0, x21
 4024138:	11008294 	add	w20, w20, #0x20
 402413c:	97fffe0b 	bl	4023968 <gicd_write_igroupr>
 4024140:	17fffff9 	b	4024124 <gicv3_spis_configure_defaults+0x24>
 4024144:	52800414 	mov	w20, #0x20                  	// #32
 4024148:	6b13029f 	cmp	w20, w19
 402414c:	540000e2 	b.cs	4024168 <gicv3_spis_configure_defaults+0x68>
 4024150:	2a1403e1 	mov	w1, w20
 4024154:	3201c3e2 	mov	w2, #0x80808080            	// #-2139062144
 4024158:	aa1503e0 	mov	x0, x21
 402415c:	11001294 	add	w20, w20, #0x4
 4024160:	97fffe0c 	bl	4023990 <gicd_write_ipriorityr>
 4024164:	17fffff9 	b	4024148 <gicv3_spis_configure_defaults+0x48>
 4024168:	52800414 	mov	w20, #0x20                  	// #32
 402416c:	6b13029f 	cmp	w20, w19
 4024170:	540000e2 	b.cs	402418c <gicv3_spis_configure_defaults+0x8c>
 4024174:	2a1403e1 	mov	w1, w20
 4024178:	52800002 	mov	w2, #0x0                   	// #0
 402417c:	aa1503e0 	mov	x0, x21
 4024180:	11004294 	add	w20, w20, #0x10
 4024184:	97fffe07 	bl	40239a0 <gicd_write_icfgr>
 4024188:	17fffff9 	b	402416c <gicv3_spis_configure_defaults+0x6c>
 402418c:	a94153f3 	ldp	x19, x20, [sp,#16]
 4024190:	f94013f5 	ldr	x21, [sp,#32]
 4024194:	a8c37bfd 	ldp	x29, x30, [sp],#48
 4024198:	d65f03c0 	ret

000000000402419c <gicv3_secure_spis_configure>:
 402419c:	a9bb7bfd 	stp	x29, x30, [sp,#-80]!
 40241a0:	7100047f 	cmp	w3, #0x1
 40241a4:	910003fd 	mov	x29, sp
 40241a8:	a90153f3 	stp	x19, x20, [sp,#16]
 40241ac:	a9025bf5 	stp	x21, x22, [sp,#32]
 40241b0:	a90363f7 	stp	x23, x24, [sp,#48]
 40241b4:	f90023f9 	str	x25, [sp,#64]
 40241b8:	540000a9 	b.ls	40241cc <gicv3_secure_spis_configure+0x30>
 40241bc:	f0000003 	adrp	x3, 4027000 <do_cpu_reg_dump+0x10>
 40241c0:	52802762 	mov	w2, #0x13b                 	// #315
 40241c4:	91344c63 	add	x3, x3, #0xd13
 40241c8:	1400000f 	b	4024204 <gicv3_secure_spis_configure+0x68>
 40241cc:	6b1f003f 	cmp	w1, wzr
 40241d0:	aa0203f7 	mov	x23, x2
 40241d4:	fa5f1040 	ccmp	x2, xzr, #0x0, ne
 40241d8:	54000100 	b.eq	40241f8 <gicv3_secure_spis_configure+0x5c>
 40241dc:	91401815 	add	x21, x0, #0x6, lsl #12
 40241e0:	aa0003f4 	mov	x20, x0
 40241e4:	2a0303f8 	mov	w24, w3
 40241e8:	2a0103f6 	mov	w22, w1
 40241ec:	d2800019 	mov	x25, #0x0                   	// #0
 40241f0:	910402b5 	add	x21, x21, #0x100
 40241f4:	1400000d 	b	4024228 <gicv3_secure_spis_configure+0x8c>
 40241f8:	f0000003 	adrp	x3, 4027000 <do_cpu_reg_dump+0x10>
 40241fc:	528027a2 	mov	w2, #0x13d                 	// #317
 4024200:	91352463 	add	x3, x3, #0xd49
 4024204:	f0000001 	adrp	x1, 4027000 <do_cpu_reg_dump+0x10>
 4024208:	f0000000 	adrp	x0, 4027000 <do_cpu_reg_dump+0x10>
 402420c:	91336421 	add	x1, x1, #0xcd9
 4024210:	9135e000 	add	x0, x0, #0xd78
 4024214:	940009a4 	bl	40268a4 <__assert>
 4024218:	b8797af3 	ldr	w19, [x23,x25,lsl #2]
 402421c:	71007e7f 	cmp	w19, #0x1f
 4024220:	540000a8 	b.hi	4024234 <gicv3_secure_spis_configure+0x98>
 4024224:	91000739 	add	x25, x25, #0x1
 4024228:	eb16033f 	cmp	x25, x22
 402422c:	54ffff61 	b.ne	4024218 <gicv3_secure_spis_configure+0x7c>
 4024230:	14000016 	b	4024288 <gicv3_secure_spis_configure+0xec>
 4024234:	2a1303e1 	mov	w1, w19
 4024238:	aa1403e0 	mov	x0, x20
 402423c:	97fffdde 	bl	40239b4 <gicd_clr_igroupr>
 4024240:	2a1303e1 	mov	w1, w19
 4024244:	aa1403e0 	mov	x0, x20
 4024248:	35000078 	cbnz	w24, 4024254 <gicv3_secure_spis_configure+0xb8>
 402424c:	97ffff3c 	bl	4023f3c <gicd_set_igrpmodr>
 4024250:	14000002 	b	4024258 <gicv3_secure_spis_configure+0xbc>
 4024254:	97ffff46 	bl	4023f6c <gicd_clr_igrpmodr>
 4024258:	52800002 	mov	w2, #0x0                   	// #0
 402425c:	2a1303e1 	mov	w1, w19
 4024260:	aa1403e0 	mov	x0, x20
 4024264:	97fffdcb 	bl	4023990 <gicd_write_ipriorityr>
 4024268:	d53800a0 	mrs	x0, mpidr_el1
 402426c:	d37d7261 	ubfiz	x1, x19, #3, #29
 4024270:	92405c00 	and	x0, x0, #0xffffff
 4024274:	f8356820 	str	x0, [x1,x21]
 4024278:	2a1303e1 	mov	w1, w19
 402427c:	aa1403e0 	mov	x0, x20
 4024280:	97fffdd9 	bl	40239e4 <gicd_set_isenabler>
 4024284:	17ffffe8 	b	4024224 <gicv3_secure_spis_configure+0x88>
 4024288:	a94153f3 	ldp	x19, x20, [sp,#16]
 402428c:	a9425bf5 	ldp	x21, x22, [sp,#32]
 4024290:	a94363f7 	ldp	x23, x24, [sp,#48]
 4024294:	f94023f9 	ldr	x25, [sp,#64]
 4024298:	a8c57bfd 	ldp	x29, x30, [sp],#80
 402429c:	d65f03c0 	ret

00000000040242a0 <gicv3_ppi_sgi_configure_defaults>:
 40242a0:	91404004 	add	x4, x0, #0x10, lsl #12
 40242a4:	aa0003e5 	mov	x5, x0
 40242a8:	12800000 	mov	w0, #0xffffffff            	// #-1
 40242ac:	b9018080 	str	w0, [x4,#384]
 40242b0:	f94000a0 	ldr	x0, [x5]
 40242b4:	371fffe0 	tbnz	w0, #3, 40242b0 <gicv3_ppi_sgi_configure_defaults+0x10>
 40242b8:	a9bf7bfd 	stp	x29, x30, [sp,#-16]!
 40242bc:	12800000 	mov	w0, #0xffffffff            	// #-1
 40242c0:	52800003 	mov	w3, #0x0                   	// #0
 40242c4:	910003fd 	mov	x29, sp
 40242c8:	b9008080 	str	w0, [x4,#128]
 40242cc:	2a0303e1 	mov	w1, w3
 40242d0:	3201c3e2 	mov	w2, #0x80808080            	// #-2139062144
 40242d4:	aa0503e0 	mov	x0, x5
 40242d8:	97ffff31 	bl	4023f9c <gicr_write_ipriorityr>
 40242dc:	11001063 	add	w3, w3, #0x4
 40242e0:	7100807f 	cmp	w3, #0x20
 40242e4:	54ffff41 	b.ne	40242cc <gicv3_ppi_sgi_configure_defaults+0x2c>
 40242e8:	b90c049f 	str	wzr, [x4,#3076]
 40242ec:	a8c17bfd 	ldp	x29, x30, [sp],#16
 40242f0:	d65f03c0 	ret

00000000040242f4 <gicv3_secure_ppi_sgi_configure>:
 40242f4:	a9bf7bfd 	stp	x29, x30, [sp,#-16]!
 40242f8:	7100047f 	cmp	w3, #0x1
 40242fc:	910003fd 	mov	x29, sp
 4024300:	540000a9 	b.ls	4024314 <gicv3_secure_ppi_sgi_configure+0x20>
 4024304:	f0000003 	adrp	x3, 4027000 <do_cpu_reg_dump+0x10>
 4024308:	528030a2 	mov	w2, #0x185                 	// #389
 402430c:	91344c63 	add	x3, x3, #0xd13
 4024310:	1400000d 	b	4024344 <gicv3_secure_ppi_sgi_configure+0x50>
 4024314:	6b1f003f 	cmp	w1, wzr
 4024318:	aa0203e8 	mov	x8, x2
 402431c:	fa5f1040 	ccmp	x2, xzr, #0x0, ne
 4024320:	540000c0 	b.eq	4024338 <gicv3_secure_ppi_sgi_configure+0x44>
 4024324:	aa0003e5 	mov	x5, x0
 4024328:	2a0303e9 	mov	w9, w3
 402432c:	2a0103e6 	mov	w6, w1
 4024330:	d2800007 	mov	x7, #0x0                   	// #0
 4024334:	1400000d 	b	4024368 <gicv3_secure_ppi_sgi_configure+0x74>
 4024338:	f0000003 	adrp	x3, 4027000 <do_cpu_reg_dump+0x10>
 402433c:	528030e2 	mov	w2, #0x187                 	// #391
 4024340:	91352463 	add	x3, x3, #0xd49
 4024344:	f0000001 	adrp	x1, 4027000 <do_cpu_reg_dump+0x10>
 4024348:	f0000000 	adrp	x0, 4027000 <do_cpu_reg_dump+0x10>
 402434c:	91336421 	add	x1, x1, #0xcd9
 4024350:	9131c000 	add	x0, x0, #0xc70
 4024354:	94000954 	bl	40268a4 <__assert>
 4024358:	b8677904 	ldr	w4, [x8,x7,lsl #2]
 402435c:	71007c9f 	cmp	w4, #0x1f
 4024360:	540000a9 	b.ls	4024374 <gicv3_secure_ppi_sgi_configure+0x80>
 4024364:	910004e7 	add	x7, x7, #0x1
 4024368:	eb0600ff 	cmp	x7, x6
 402436c:	54ffff61 	b.ne	4024358 <gicv3_secure_ppi_sgi_configure+0x64>
 4024370:	14000012 	b	40243b8 <gicv3_secure_ppi_sgi_configure+0xc4>
 4024374:	2a0403e1 	mov	w1, w4
 4024378:	aa0503e0 	mov	x0, x5
 402437c:	97ffff0d 	bl	4023fb0 <gicr_clr_igroupr0>
 4024380:	2a0403e1 	mov	w1, w4
 4024384:	aa0503e0 	mov	x0, x5
 4024388:	35000069 	cbnz	w9, 4024394 <gicv3_secure_ppi_sgi_configure+0xa0>
 402438c:	97ffff10 	bl	4023fcc <gicr_set_igrpmodr0>
 4024390:	14000002 	b	4024398 <gicv3_secure_ppi_sgi_configure+0xa4>
 4024394:	97ffff15 	bl	4023fe8 <gicr_clr_igrpmodr0>
 4024398:	2a0403e1 	mov	w1, w4
 402439c:	aa0503e0 	mov	x0, x5
 40243a0:	52800002 	mov	w2, #0x0                   	// #0
 40243a4:	97fffefe 	bl	4023f9c <gicr_write_ipriorityr>
 40243a8:	2a0403e1 	mov	w1, w4
 40243ac:	aa0503e0 	mov	x0, x5
 40243b0:	97ffff15 	bl	4024004 <gicr_set_isenabler0>
 40243b4:	17ffffec 	b	4024364 <gicv3_secure_ppi_sgi_configure+0x70>
 40243b8:	a8c17bfd 	ldp	x29, x30, [sp],#16
 40243bc:	d65f03c0 	ret

00000000040243c0 <plat_ic_get_pending_interrupt_type>:
 40243c0:	a9bf7bfd 	stp	x29, x30, [sp,#-16]!
 40243c4:	910003fd 	mov	x29, sp
 40243c8:	d5384240 	mrs	x0, currentel
 40243cc:	d3420c00 	ubfx	x0, x0, #2, #2
 40243d0:	f1000c1f 	cmp	x0, #0x3
 40243d4:	54000120 	b.eq	40243f8 <plat_ic_get_pending_interrupt_type+0x38>
 40243d8:	f0000003 	adrp	x3, 4027000 <do_cpu_reg_dump+0x10>
 40243dc:	f0000001 	adrp	x1, 4027000 <do_cpu_reg_dump+0x10>
 40243e0:	f0000000 	adrp	x0, 4027000 <do_cpu_reg_dump+0x10>
 40243e4:	9126bc63 	add	x3, x3, #0x9af
 40243e8:	52800ae2 	mov	w2, #0x57                  	// #87
 40243ec:	91367021 	add	x1, x1, #0xd9c
 40243f0:	9138a000 	add	x0, x0, #0xe28
 40243f4:	9400092c 	bl	40268a4 <__assert>
 40243f8:	97fffeb6 	bl	4023ed0 <gicv3_get_pending_interrupt_type>
 40243fc:	510ff002 	sub	w2, w0, #0x3fc
 4024400:	71000c5f 	cmp	w2, #0x3
 4024404:	52800020 	mov	w0, #0x1                   	// #1
 4024408:	54000088 	b.hi	4024418 <plat_ic_get_pending_interrupt_type+0x58>
 402440c:	f0000001 	adrp	x1, 4027000 <do_cpu_reg_dump+0x10>
 4024410:	91366021 	add	x1, x1, #0xd98
 4024414:	38624820 	ldrb	w0, [x1,w2,uxtw]
 4024418:	a8c17bfd 	ldp	x29, x30, [sp],#16
 402441c:	d65f03c0 	ret

0000000004024420 <bl31_plat_get_next_image_ep_info>:
 4024420:	7100041f 	cmp	w0, #0x1
 4024424:	54000169 	b.ls	4024450 <bl31_plat_get_next_image_ep_info+0x30>
 4024428:	a9bf7bfd 	stp	x29, x30, [sp,#-16]!
 402442c:	f0000003 	adrp	x3, 4027000 <do_cpu_reg_dump+0x10>
 4024430:	f0000001 	adrp	x1, 4027000 <do_cpu_reg_dump+0x10>
 4024434:	f0000000 	adrp	x0, 4027000 <do_cpu_reg_dump+0x10>
 4024438:	910003fd 	mov	x29, sp
 402443c:	91392c63 	add	x3, x3, #0xe4b
 4024440:	52800f82 	mov	w2, #0x7c                  	// #124
 4024444:	91399021 	add	x1, x1, #0xe64
 4024448:	913d4000 	add	x0, x0, #0xf50
 402444c:	94000916 	bl	40268a4 <__assert>
 4024450:	54000080 	b.eq	4024460 <bl31_plat_get_next_image_ep_info+0x40>
 4024454:	d0000020 	adrp	x0, 402a000 <__RO_END_UNALIGNED__>
 4024458:	912c6000 	add	x0, x0, #0xb18
 402445c:	d65f03c0 	ret
 4024460:	d0000020 	adrp	x0, 402a000 <__RO_END_UNALIGNED__>
 4024464:	912dc000 	add	x0, x0, #0xb70
 4024468:	d65f03c0 	ret

000000000402446c <marvell_bl31_early_platform_setup>:
 402446c:	a9be7bfd 	stp	x29, x30, [sp,#-32]!
 4024470:	52984002 	mov	w2, #0xc200                	// #49664
 4024474:	910003fd 	mov	x29, sp
 4024478:	a90153f3 	stp	x19, x20, [sp,#16]
 402447c:	aa0003f3 	mov	x19, x0
 4024480:	aa0103f4 	mov	x20, x1
 4024484:	d2840000 	mov	x0, #0x2000                	// #8192
 4024488:	52980001 	mov	w1, #0xc000                	// #49152
 402448c:	72a00022 	movk	w2, #0x1, lsl #16
 4024490:	72a03121 	movk	w1, #0x189, lsl #16
 4024494:	f2ba0020 	movk	x0, #0xd001, lsl #16
 4024498:	94000bdf 	bl	4027414 <console_init>
 402449c:	b50000b3 	cbnz	x19, 40244b0 <marvell_bl31_early_platform_setup+0x44>
 40244a0:	f0000003 	adrp	x3, 4027000 <do_cpu_reg_dump+0x10>
 40244a4:	52801662 	mov	w2, #0xb3                  	// #179
 40244a8:	913a3463 	add	x3, x3, #0xe8d
 40244ac:	14000007 	b	40244c8 <marvell_bl31_early_platform_setup+0x5c>
 40244b0:	39400260 	ldrb	w0, [x19]
 40244b4:	71000c1f 	cmp	w0, #0x3
 40244b8:	54000120 	b.eq	40244dc <marvell_bl31_early_platform_setup+0x70>
 40244bc:	f0000003 	adrp	x3, 4027000 <do_cpu_reg_dump+0x10>
 40244c0:	52801682 	mov	w2, #0xb4                  	// #180
 40244c4:	913a7863 	add	x3, x3, #0xe9e
 40244c8:	f0000001 	adrp	x1, 4027000 <do_cpu_reg_dump+0x10>
 40244cc:	f0000000 	adrp	x0, 4027000 <do_cpu_reg_dump+0x10>
 40244d0:	91399021 	add	x1, x1, #0xe64
 40244d4:	913ca000 	add	x0, x0, #0xf28
 40244d8:	940008f3 	bl	40268a4 <__assert>
 40244dc:	39400660 	ldrb	w0, [x19,#1]
 40244e0:	350000a0 	cbnz	w0, 40244f4 <marvell_bl31_early_platform_setup+0x88>
 40244e4:	f0000003 	adrp	x3, 4027000 <do_cpu_reg_dump+0x10>
 40244e8:	528016a2 	mov	w2, #0xb5                  	// #181
 40244ec:	913af463 	add	x3, x3, #0xebd
 40244f0:	17fffff6 	b	40244c8 <marvell_bl31_early_platform_setup+0x5c>
 40244f4:	d28d2f00 	mov	x0, #0x6978                	// #27000
 40244f8:	f2a96b40 	movk	x0, #0x4b5a, lsl #16
 40244fc:	f2c5a780 	movk	x0, #0x2d3c, lsl #32
 4024500:	f2e1e3c0 	movk	x0, #0xf1e, lsl #48
 4024504:	eb00029f 	cmp	x20, x0
 4024508:	540000a0 	b.eq	402451c <marvell_bl31_early_platform_setup+0xb0>
 402450c:	f0000003 	adrp	x3, 4027000 <do_cpu_reg_dump+0x10>
 4024510:	52801782 	mov	w2, #0xbc                  	// #188
 4024514:	913b7863 	add	x3, x3, #0xede
 4024518:	17ffffec 	b	40244c8 <marvell_bl31_early_platform_setup+0x5c>
 402451c:	f9400a61 	ldr	x1, [x19,#16]
 4024520:	b40000a1 	cbz	x1, 4024534 <marvell_bl31_early_platform_setup+0xc8>
 4024524:	d0000020 	adrp	x0, 402a000 <__RO_END_UNALIGNED__>
 4024528:	d2800b02 	mov	x2, #0x58                  	// #88
 402452c:	912c6000 	add	x0, x0, #0xb18
 4024530:	940008eb 	bl	40268dc <memcpy>
 4024534:	f9401261 	ldr	x1, [x19,#32]
 4024538:	d0000020 	adrp	x0, 402a000 <__RO_END_UNALIGNED__>
 402453c:	d2800b02 	mov	x2, #0x58                  	// #88
 4024540:	912dc000 	add	x0, x0, #0xb70
 4024544:	940008e6 	bl	40268dc <memcpy>
 4024548:	a94153f3 	ldp	x19, x20, [sp,#16]
 402454c:	a8c27bfd 	ldp	x29, x30, [sp],#32
 4024550:	d65f03c0 	ret

0000000004024554 <bl31_early_platform_setup>:
 4024554:	17ffffc6 	b	402446c <marvell_bl31_early_platform_setup>

0000000004024558 <marvell_bl31_platform_setup>:
 4024558:	a9bf7bfd 	stp	x29, x30, [sp,#-16]!
 402455c:	910003fd 	mov	x29, sp
 4024560:	97fffb4a 	bl	4023288 <plat_marvell_gic_driver_init>
 4024564:	97fffb4c 	bl	4023294 <plat_marvell_gic_init>
 4024568:	a8c17bfd 	ldp	x29, x30, [sp],#16
 402456c:	140016cd 	b	402a0a0 <psci_arch_init>

0000000004024570 <marvell_bl31_plat_runtime_setup>:
 4024570:	52984002 	mov	w2, #0xc200                	// #49664
 4024574:	52980001 	mov	w1, #0xc000                	// #49152
 4024578:	d2840000 	mov	x0, #0x2000                	// #8192
 402457c:	72a00022 	movk	w2, #0x1, lsl #16
 4024580:	72a03121 	movk	w1, #0x189, lsl #16
 4024584:	f2ba0020 	movk	x0, #0xd001, lsl #16
 4024588:	14000ba3 	b	4027414 <console_init>

000000000402458c <bl31_platform_setup>:
 402458c:	17fffff3 	b	4024558 <marvell_bl31_platform_setup>

0000000004024590 <bl31_plat_runtime_setup>:
 4024590:	17fffff8 	b	4024570 <marvell_bl31_plat_runtime_setup>

0000000004024594 <marvell_bl31_plat_arch_setup>:
 4024594:	d65f03c0 	ret

0000000004024598 <plat_get_syscnt_freq>:
 4024598:	d2978400 	mov	x0, #0xbc20                	// #48160
 402459c:	f2a017c0 	movk	x0, #0xbe, lsl #16
 40245a0:	d65f03c0 	ret

00000000040245a4 <plat_setup_psci_ops>:
 40245a4:	f0000000 	adrp	x0, 4027000 <do_cpu_reg_dump+0x10>
 40245a8:	91158000 	add	x0, x0, #0x560
 40245ac:	f9000020 	str	x0, [x1]
 40245b0:	52800000 	mov	w0, #0x0                   	// #0
 40245b4:	d65f03c0 	ret

00000000040245b8 <plat_get_power_domain_tree_desc>:
 40245b8:	f0000000 	adrp	x0, 4027000 <do_cpu_reg_dump+0x10>
 40245bc:	911d4000 	add	x0, x0, #0x750
 40245c0:	d65f03c0 	ret

00000000040245c4 <plat_get_target_pwr_state>:
 40245c4:	35000162 	cbnz	w2, 40245f0 <plat_get_target_pwr_state+0x2c>
 40245c8:	a9bf7bfd 	stp	x29, x30, [sp,#-16]!
 40245cc:	f0000003 	adrp	x3, 4027000 <do_cpu_reg_dump+0x10>
 40245d0:	f0000001 	adrp	x1, 4027000 <do_cpu_reg_dump+0x10>
 40245d4:	f0000000 	adrp	x0, 4027000 <do_cpu_reg_dump+0x10>
 40245d8:	910003fd 	mov	x29, sp
 40245dc:	913e4863 	add	x3, x3, #0xf92
 40245e0:	528006c2 	mov	w2, #0x36                  	// #54
 40245e4:	913e5c21 	add	x1, x1, #0xf97
 40245e8:	913de000 	add	x0, x0, #0xf78
 40245ec:	940008ae 	bl	40268a4 <__assert>
 40245f0:	51000442 	sub	w2, w2, #0x1
 40245f4:	52800040 	mov	w0, #0x2                   	// #2
 40245f8:	91000442 	add	x2, x2, #0x1
 40245fc:	8b020022 	add	x2, x1, x2
 4024600:	38401423 	ldrb	w3, [x1],#1
 4024604:	6b00007f 	cmp	w3, w0
 4024608:	1a803060 	csel	w0, w3, w0, cc
 402460c:	eb02003f 	cmp	x1, x2
 4024610:	53001c00 	uxtb	w0, w0
 4024614:	54ffff61 	b.ne	4024600 <plat_get_target_pwr_state+0x3c>
 4024618:	d65f03c0 	ret

000000000402461c <bl31_prepare_next_image_entry>:
 402461c:	a9be7bfd 	stp	x29, x30, [sp,#-32]!
 4024620:	d0000020 	adrp	x0, 402a000 <__RO_END_UNALIGNED__>
 4024624:	910003fd 	mov	x29, sp
 4024628:	a90153f3 	stp	x19, x20, [sp,#16]
 402462c:	b942bc13 	ldr	w19, [x0,#700]
 4024630:	2a1303e0 	mov	w0, w19
 4024634:	97ffff7b 	bl	4024420 <bl31_plat_get_next_image_ep_info>
 4024638:	b50000a0 	cbnz	x0, 402464c <bl31_prepare_next_image_entry+0x30>
 402463c:	f0000003 	adrp	x3, 4027000 <do_cpu_reg_dump+0x10>
 4024640:	52801322 	mov	w2, #0x99                  	// #153
 4024644:	913fbc63 	add	x3, x3, #0xfef
 4024648:	14000009 	b	402466c <bl31_prepare_next_image_entry+0x50>
 402464c:	b9400401 	ldr	w1, [x0,#4]
 4024650:	aa0003f4 	mov	x20, x0
 4024654:	12000021 	and	w1, w1, #0x1
 4024658:	6b01027f 	cmp	w19, w1
 402465c:	54000120 	b.eq	4024680 <bl31_prepare_next_image_entry+0x64>
 4024660:	f0000003 	adrp	x3, 4027000 <do_cpu_reg_dump+0x10>
 4024664:	52801342 	mov	w2, #0x9a                  	// #154
 4024668:	913ffc63 	add	x3, x3, #0xfff
 402466c:	f0000001 	adrp	x1, 4027000 <do_cpu_reg_dump+0x10>
 4024670:	f0000000 	adrp	x0, 4027000 <do_cpu_reg_dump+0x10>
 4024674:	913f7821 	add	x1, x1, #0xfde
 4024678:	913f0000 	add	x0, x0, #0xfc0
 402467c:	9400088a 	bl	40268a4 <__assert>
 4024680:	940007ca 	bl	40265a8 <print_entry_point_info>
 4024684:	aa1403e0 	mov	x0, x20
 4024688:	94000123 	bl	4024b14 <cm_init_my_context>
 402468c:	2a1303e0 	mov	w0, w19
 4024690:	a94153f3 	ldp	x19, x20, [sp,#16]
 4024694:	a8c27bfd 	ldp	x29, x30, [sp],#32
 4024698:	1400012a 	b	4024b40 <cm_prepare_el3_exit>

000000000402469c <bl31_main>:
 402469c:	a9be7bfd 	stp	x29, x30, [sp,#-32]!
 40246a0:	f0000001 	adrp	x1, 4027000 <do_cpu_reg_dump+0x10>
 40246a4:	910003fd 	mov	x29, sp
 40246a8:	f9000bf3 	str	x19, [sp,#16]
 40246ac:	90000033 	adrp	x19, 4028000 <__func__.2394+0x40>
 40246b0:	9100e673 	add	x19, x19, #0x39
 40246b4:	91148021 	add	x1, x1, #0x520
 40246b8:	aa1303e0 	mov	x0, x19
 40246bc:	940007d9 	bl	4026620 <tf_printf>
 40246c0:	f0000001 	adrp	x1, 4027000 <do_cpu_reg_dump+0x10>
 40246c4:	aa1303e0 	mov	x0, x19
 40246c8:	91150021 	add	x1, x1, #0x540
 40246cc:	940007d5 	bl	4026620 <tf_printf>
 40246d0:	94000080 	bl	40248d0 <bl31_arch_setup>
 40246d4:	97ffffae 	bl	402458c <bl31_platform_setup>
 40246d8:	94000103 	bl	4024ae4 <cm_init>
 40246dc:	94000009 	bl	4024700 <runtime_svc_init>
 40246e0:	d0000020 	adrp	x0, 402a000 <__RO_END_UNALIGNED__>
 40246e4:	f945e400 	ldr	x0, [x0,#3016]
 40246e8:	b4000040 	cbz	x0, 40246f0 <bl31_main+0x54>
 40246ec:	d63f0000 	blr	x0
 40246f0:	97ffffcb 	bl	402461c <bl31_prepare_next_image_entry>
 40246f4:	f9400bf3 	ldr	x19, [sp,#16]
 40246f8:	a8c27bfd 	ldp	x29, x30, [sp],#32
 40246fc:	17ffffa5 	b	4024590 <bl31_plat_runtime_setup>

0000000004024700 <runtime_svc_init>:
 4024700:	a9bb7bfd 	stp	x29, x30, [sp,#-80]!
 4024704:	910003fd 	mov	x29, sp
 4024708:	a90153f3 	stp	x19, x20, [sp,#16]
 402470c:	90000033 	adrp	x19, 4028000 <__func__.2394+0x40>
 4024710:	90000034 	adrp	x20, 4028000 <__func__.2394+0x40>
 4024714:	913f0273 	add	x19, x19, #0xfc0
 4024718:	913f8294 	add	x20, x20, #0xfe0
 402471c:	cb130294 	sub	x20, x20, x19
 4024720:	f90023f9 	str	x25, [sp,#64]
 4024724:	a9025bf5 	stp	x21, x22, [sp,#32]
 4024728:	a90363f7 	stp	x23, x24, [sp,#48]
 402472c:	d345fe94 	lsr	x20, x20, #5
 4024730:	b40007f4 	cbz	x20, 402482c <runtime_svc_init+0x12c>
 4024734:	f0000035 	adrp	x21, 402b000 <psci_ns_context+0x3d0>
 4024738:	d0000038 	adrp	x24, 402a000 <__RO_END_UNALIGNED__>
 402473c:	910702b5 	add	x21, x21, #0x1c0
 4024740:	d2801002 	mov	x2, #0x80                  	// #128
 4024744:	12800001 	mov	w1, #0xffffffff            	// #-1
 4024748:	aa1503e0 	mov	x0, x21
 402474c:	90000036 	adrp	x22, 4028000 <__func__.2394+0x40>
 4024750:	52800019 	mov	w25, #0x0                   	// #0
 4024754:	9400085b 	bl	40268c0 <memset>
 4024758:	528007f7 	mov	w23, #0x3f                  	// #63
 402475c:	f905eb13 	str	x19, [x24,#3024]
 4024760:	910132d6 	add	x22, x22, #0x4c
 4024764:	2a1903f3 	mov	w19, w25
 4024768:	eb13029f 	cmp	x20, x19
 402476c:	54000609 	b.ls	402482c <runtime_svc_init+0x12c>
 4024770:	f945eb00 	ldr	x0, [x24,#3024]
 4024774:	d37bea73 	lsl	x19, x19, #5
 4024778:	ab130001 	adds	x1, x0, x19
 402477c:	540004e0 	b.eq	4024818 <runtime_svc_init+0x118>
 4024780:	39400422 	ldrb	w2, [x1,#1]
 4024784:	38736800 	ldrb	w0, [x0,x19]
 4024788:	6b02001f 	cmp	w0, w2
 402478c:	7a579042 	ccmp	w2, w23, #0x2, ls
 4024790:	54000448 	b.hi	4024818 <runtime_svc_init+0x118>
 4024794:	39400820 	ldrb	w0, [x1,#2]
 4024798:	7100041f 	cmp	w0, #0x1
 402479c:	540003e8 	b.hi	4024818 <runtime_svc_init+0x118>
 40247a0:	f9400820 	ldr	x0, [x1,#16]
 40247a4:	b5000080 	cbnz	x0, 40247b4 <runtime_svc_init+0xb4>
 40247a8:	f9400c20 	ldr	x0, [x1,#24]
 40247ac:	b5000140 	cbnz	x0, 40247d4 <runtime_svc_init+0xd4>
 40247b0:	1400001a 	b	4024818 <runtime_svc_init+0x118>
 40247b4:	d63f0000 	blr	x0
 40247b8:	340000e0 	cbz	w0, 40247d4 <runtime_svc_init+0xd4>
 40247bc:	f945eb00 	ldr	x0, [x24,#3024]
 40247c0:	8b130013 	add	x19, x0, x19
 40247c4:	aa1603e0 	mov	x0, x22
 40247c8:	f9400661 	ldr	x1, [x19,#8]
 40247cc:	94000795 	bl	4026620 <tf_printf>
 40247d0:	14000010 	b	4024810 <runtime_svc_init+0x110>
 40247d4:	f945eb01 	ldr	x1, [x24,#3024]
 40247d8:	8b130022 	add	x2, x1, x19
 40247dc:	38736821 	ldrb	w1, [x1,x19]
 40247e0:	39400840 	ldrb	w0, [x2,#2]
 40247e4:	12001421 	and	w1, w1, #0x3f
 40247e8:	39400442 	ldrb	w2, [x2,#1]
 40247ec:	531a0000 	ubfiz	w0, w0, #6, #1
 40247f0:	12001442 	and	w2, w2, #0x3f
 40247f4:	2a000021 	orr	w1, w1, w0
 40247f8:	2a000040 	orr	w0, w2, w0
 40247fc:	6b00003f 	cmp	w1, w0
 4024800:	54000088 	b.hi	4024810 <runtime_svc_init+0x110>
 4024804:	38214ab9 	strb	w25, [x21,w1,uxtw]
 4024808:	11000421 	add	w1, w1, #0x1
 402480c:	17fffffc 	b	40247fc <runtime_svc_init+0xfc>
 4024810:	11000739 	add	w25, w25, #0x1
 4024814:	17ffffd4 	b	4024764 <runtime_svc_init+0x64>
 4024818:	90000020 	adrp	x0, 4028000 <__func__.2394+0x40>
 402481c:	f9400422 	ldr	x2, [x1,#8]
 4024820:	9101f000 	add	x0, x0, #0x7c
 4024824:	9400077f 	bl	4026620 <tf_printf>
 4024828:	94000a74 	bl	40271f8 <do_panic>
 402482c:	a94153f3 	ldp	x19, x20, [sp,#16]
 4024830:	a9425bf5 	ldp	x21, x22, [sp,#32]
 4024834:	a94363f7 	ldp	x23, x24, [sp,#48]
 4024838:	f94023f9 	ldr	x25, [sp,#64]
 402483c:	a8c57bfd 	ldp	x29, x30, [sp],#80
 4024840:	d65f03c0 	ret

0000000004024844 <get_scr_el3_from_routing_model>:
 4024844:	7100041f 	cmp	w0, #0x1
 4024848:	54000169 	b.ls	4024874 <get_scr_el3_from_routing_model+0x30>
 402484c:	a9bf7bfd 	stp	x29, x30, [sp,#-16]!
 4024850:	f0000003 	adrp	x3, 4027000 <do_cpu_reg_dump+0x10>
 4024854:	90000021 	adrp	x1, 4028000 <__func__.2394+0x40>
 4024858:	90000020 	adrp	x0, 4028000 <__func__.2394+0x40>
 402485c:	910003fd 	mov	x29, sp
 4024860:	9137f863 	add	x3, x3, #0xdfe
 4024864:	52800dc2 	mov	w2, #0x6e                  	// #110
 4024868:	9102d021 	add	x1, x1, #0xb4
 402486c:	9103a000 	add	x0, x0, #0xe8
 4024870:	9400080d 	bl	40268a4 <__assert>
 4024874:	d0000021 	adrp	x1, 402a000 <__RO_END_UNALIGNED__>
 4024878:	912f6022 	add	x2, x1, #0xbd8
 402487c:	2a0003e1 	mov	w1, w0
 4024880:	8b010840 	add	x0, x2, x1, lsl #2
 4024884:	b9403c03 	ldr	w3, [x0,#60]
 4024888:	8b010840 	add	x0, x2, x1, lsl #2
 402488c:	8b010841 	add	x1, x2, x1, lsl #2
 4024890:	b9400c00 	ldr	w0, [x0,#12]
 4024894:	b9402421 	ldr	w1, [x1,#36]
 4024898:	2a000060 	orr	w0, w3, w0
 402489c:	2a010000 	orr	w0, w0, w1
 40248a0:	d65f03c0 	ret

00000000040248a4 <get_interrupt_type_handler>:
 40248a4:	7100081f 	cmp	w0, #0x2
 40248a8:	54000069 	b.ls	40248b4 <get_interrupt_type_handler+0x10>
 40248ac:	d2800000 	mov	x0, #0x0                   	// #0
 40248b0:	d65f03c0 	ret
 40248b4:	d2800301 	mov	x1, #0x18                  	// #24
 40248b8:	2a0003e0 	mov	w0, w0
 40248bc:	9b017c00 	mul	x0, x0, x1
 40248c0:	d0000021 	adrp	x1, 402a000 <__RO_END_UNALIGNED__>
 40248c4:	912f6021 	add	x1, x1, #0xbd8
 40248c8:	f8606820 	ldr	x0, [x1,x0]
 40248cc:	d65f03c0 	ret

00000000040248d0 <bl31_arch_setup>:
 40248d0:	a9bf7bfd 	stp	x29, x30, [sp,#-16]!
 40248d4:	d2800600 	mov	x0, #0x30                  	// #48
 40248d8:	910003fd 	mov	x29, sp
 40248dc:	d51e1100 	msr	scr_el3, x0
 40248e0:	97ffff2e 	bl	4024598 <plat_get_syscnt_freq>
 40248e4:	d51be000 	msr	cntfrq_el0, x0
 40248e8:	a8c17bfd 	ldp	x29, x30, [sp],#16
 40248ec:	140009b4 	b	4026fbc <init_cpu_ops>

00000000040248f0 <cm_get_context>:
 40248f0:	7100041f 	cmp	w0, #0x1
 40248f4:	54000169 	b.ls	4024920 <cm_get_context+0x30>
 40248f8:	a9bf7bfd 	stp	x29, x30, [sp,#-16]!
 40248fc:	90000023 	adrp	x3, 4028000 <__func__.2394+0x40>
 4024900:	90000021 	adrp	x1, 4028000 <__func__.2394+0x40>
 4024904:	90000020 	adrp	x0, 4028000 <__func__.2394+0x40>
 4024908:	910003fd 	mov	x29, sp
 402490c:	91052063 	add	x3, x3, #0x148
 4024910:	528005c2 	mov	w2, #0x2e                  	// #46
 4024914:	91059421 	add	x1, x1, #0x165
 4024918:	91042000 	add	x0, x0, #0x108
 402491c:	940007e2 	bl	40268a4 <__assert>
 4024920:	d53ed041 	mrs	x1, tpidr_el3
 4024924:	f8605820 	ldr	x0, [x1,w0,uxtw #3]
 4024928:	d65f03c0 	ret

000000000402492c <cm_get_context_by_index>:
 402492c:	a9be7bfd 	stp	x29, x30, [sp,#-32]!
 4024930:	7100043f 	cmp	w1, #0x1
 4024934:	910003fd 	mov	x29, sp
 4024938:	f9000bf3 	str	x19, [sp,#16]
 402493c:	54000129 	b.ls	4024960 <cm_get_context_by_index+0x34>
 4024940:	f0000003 	adrp	x3, 4027000 <do_cpu_reg_dump+0x10>
 4024944:	90000021 	adrp	x1, 4028000 <__func__.2394+0x40>
 4024948:	90000020 	adrp	x0, 4028000 <__func__.2394+0x40>
 402494c:	9137f863 	add	x3, x3, #0xdfe
 4024950:	528008e2 	mov	w2, #0x47                  	// #71
 4024954:	91059421 	add	x1, x1, #0x165
 4024958:	91046000 	add	x0, x0, #0x118
 402495c:	940007d2 	bl	40268a4 <__assert>
 4024960:	2a0103f3 	mov	w19, w1
 4024964:	9400085a 	bl	4026acc <_cpu_data_by_index>
 4024968:	f8735800 	ldr	x0, [x0,w19,uxtw #3]
 402496c:	f9400bf3 	ldr	x19, [sp,#16]
 4024970:	a8c27bfd 	ldp	x29, x30, [sp],#32
 4024974:	d65f03c0 	ret

0000000004024978 <cm_set_context_by_index>:
 4024978:	a9be7bfd 	stp	x29, x30, [sp,#-32]!
 402497c:	7100045f 	cmp	w2, #0x1
 4024980:	910003fd 	mov	x29, sp
 4024984:	a90153f3 	stp	x19, x20, [sp,#16]
 4024988:	54000129 	b.ls	40249ac <cm_set_context_by_index+0x34>
 402498c:	f0000003 	adrp	x3, 4027000 <do_cpu_reg_dump+0x10>
 4024990:	90000021 	adrp	x1, 4028000 <__func__.2394+0x40>
 4024994:	90000020 	adrp	x0, 4028000 <__func__.2394+0x40>
 4024998:	9137f863 	add	x3, x3, #0xdfe
 402499c:	52800a62 	mov	w2, #0x53                  	// #83
 40249a0:	91059421 	add	x1, x1, #0x165
 40249a4:	9104c000 	add	x0, x0, #0x130
 40249a8:	940007bf 	bl	40268a4 <__assert>
 40249ac:	2a0203f3 	mov	w19, w2
 40249b0:	aa0103f4 	mov	x20, x1
 40249b4:	94000846 	bl	4026acc <_cpu_data_by_index>
 40249b8:	f8335814 	str	x20, [x0,w19,uxtw #3]
 40249bc:	a94153f3 	ldp	x19, x20, [sp,#16]
 40249c0:	a8c27bfd 	ldp	x29, x30, [sp],#32
 40249c4:	d65f03c0 	ret

00000000040249c8 <cm_init_context_common>:
 40249c8:	a9bd7bfd 	stp	x29, x30, [sp,#-48]!
 40249cc:	910003fd 	mov	x29, sp
 40249d0:	a90153f3 	stp	x19, x20, [sp,#16]
 40249d4:	a9025bf5 	stp	x21, x22, [sp,#32]
 40249d8:	b5000120 	cbnz	x0, 40249fc <cm_init_context_common+0x34>
 40249dc:	90000023 	adrp	x3, 4028000 <__func__.2394+0x40>
 40249e0:	90000021 	adrp	x1, 4028000 <__func__.2394+0x40>
 40249e4:	90000020 	adrp	x0, 4028000 <__func__.2394+0x40>
 40249e8:	9105f863 	add	x3, x3, #0x17e
 40249ec:	52800b22 	mov	w2, #0x59                  	// #89
 40249f0:	91060821 	add	x1, x1, #0x182
 40249f4:	91080000 	add	x0, x0, #0x200
 40249f8:	940007ab 	bl	40268a4 <__assert>
 40249fc:	aa0103f4 	mov	x20, x1
 4024a00:	d2804202 	mov	x2, #0x210                 	// #528
 4024a04:	52800001 	mov	w1, #0x0                   	// #0
 4024a08:	aa0003f5 	mov	x21, x0
 4024a0c:	b9400696 	ldr	w22, [x20,#4]
 4024a10:	940007ac 	bl	40268c0 <memset>
 4024a14:	120002d6 	and	w22, w22, #0x1
 4024a18:	d53e1100 	mrs	x0, scr_el3
 4024a1c:	1281a0f3 	mov	w19, #0xfffff2f8            	// #-3336
 4024a20:	0a000273 	and	w19, w19, w0
 4024a24:	b9401280 	ldr	w0, [x20,#16]
 4024a28:	2a160273 	orr	w19, w19, w22
 4024a2c:	d3441000 	ubfx	x0, x0, #4, #1
 4024a30:	32160261 	orr	w1, w19, #0x400
 4024a34:	6b1f001f 	cmp	w0, wzr
 4024a38:	b9400680 	ldr	w0, [x20,#4]
 4024a3c:	1a930033 	csel	w19, w1, w19, eq
 4024a40:	121e0000 	and	w0, w0, #0x4
 4024a44:	32150261 	orr	w1, w19, #0x800
 4024a48:	6b1f001f 	cmp	w0, wzr
 4024a4c:	2a1603e0 	mov	w0, w22
 4024a50:	1a931033 	csel	w19, w1, w19, ne
 4024a54:	97ffff7c 	bl	4024844 <get_scr_el3_from_routing_model>
 4024a58:	2a000260 	orr	w0, w19, w0
 4024a5c:	b9400681 	ldr	w1, [x20,#4]
 4024a60:	b9401282 	ldr	w2, [x20,#16]
 4024a64:	121f0021 	and	w1, w1, #0x2
 4024a68:	d3441043 	ubfx	x3, x2, #4, #1
 4024a6c:	6b1f003f 	cmp	w1, wzr
 4024a70:	d2a04001 	mov	x1, #0x2000000             	// #33554432
 4024a74:	9a9f1021 	csel	x1, x1, xzr, ne
 4024a78:	35000083 	cbnz	w3, 4024a88 <cm_init_context_common+0xc0>
 4024a7c:	d2810004 	mov	x4, #0x800                 	// #2048
 4024a80:	f2a61a04 	movk	x4, #0x30d0, lsl #16
 4024a84:	14000003 	b	4024a90 <cm_init_context_common+0xc8>
 4024a88:	d2810304 	mov	x4, #0x818                 	// #2072
 4024a8c:	f2a01804 	movk	x4, #0xc0, lsl #16
 4024a90:	aa040021 	orr	x1, x1, x4
 4024a94:	f900aaa1 	str	x1, [x21,#336]
 4024a98:	35000083 	cbnz	w3, 4024aa8 <cm_init_context_common+0xe0>
 4024a9c:	d3420c41 	ubfx	x1, x2, #2, #2
 4024aa0:	7100083f 	cmp	w1, #0x2
 4024aa4:	14000003 	b	4024ab0 <cm_init_context_common+0xe8>
 4024aa8:	12000c41 	and	w1, w2, #0xf
 4024aac:	7100283f 	cmp	w1, #0xa
 4024ab0:	54000041 	b.ne	4024ab8 <cm_init_context_common+0xf0>
 4024ab4:	32180000 	orr	w0, w0, #0x100
 4024ab8:	f90082a0 	str	x0, [x21,#256]
 4024abc:	2a0203e2 	mov	w2, w2
 4024ac0:	f9400680 	ldr	x0, [x20,#8]
 4024ac4:	91006281 	add	x1, x20, #0x18
 4024ac8:	a94153f3 	ldp	x19, x20, [sp,#16]
 4024acc:	a91102a2 	stp	x2, x0, [x21,#272]
 4024ad0:	aa1503e0 	mov	x0, x21
 4024ad4:	d2800802 	mov	x2, #0x40                  	// #64
 4024ad8:	a9425bf5 	ldp	x21, x22, [sp,#32]
 4024adc:	a8c37bfd 	ldp	x29, x30, [sp],#48
 4024ae0:	1400077f 	b	40268dc <memcpy>

0000000004024ae4 <cm_init>:
 4024ae4:	d65f03c0 	ret

0000000004024ae8 <cm_init_context_by_index>:
 4024ae8:	a9be7bfd 	stp	x29, x30, [sp,#-32]!
 4024aec:	910003fd 	mov	x29, sp
 4024af0:	f9000bf3 	str	x19, [sp,#16]
 4024af4:	aa0103f3 	mov	x19, x1
 4024af8:	b9400421 	ldr	w1, [x1,#4]
 4024afc:	12000021 	and	w1, w1, #0x1
 4024b00:	97ffff8b 	bl	402492c <cm_get_context_by_index>
 4024b04:	aa1303e1 	mov	x1, x19
 4024b08:	f9400bf3 	ldr	x19, [sp,#16]
 4024b0c:	a8c27bfd 	ldp	x29, x30, [sp],#32
 4024b10:	17ffffae 	b	40249c8 <cm_init_context_common>

0000000004024b14 <cm_init_my_context>:
 4024b14:	a9be7bfd 	stp	x29, x30, [sp,#-32]!
 4024b18:	910003fd 	mov	x29, sp
 4024b1c:	f9000bf3 	str	x19, [sp,#16]
 4024b20:	aa0003f3 	mov	x19, x0
 4024b24:	b9400400 	ldr	w0, [x0,#4]
 4024b28:	12000000 	and	w0, w0, #0x1
 4024b2c:	97ffff71 	bl	40248f0 <cm_get_context>
 4024b30:	aa1303e1 	mov	x1, x19
 4024b34:	f9400bf3 	ldr	x19, [sp,#16]
 4024b38:	a8c27bfd 	ldp	x29, x30, [sp],#32
 4024b3c:	17ffffa3 	b	40249c8 <cm_init_context_common>

0000000004024b40 <cm_prepare_el3_exit>:
 4024b40:	a9be7bfd 	stp	x29, x30, [sp,#-32]!
 4024b44:	910003fd 	mov	x29, sp
 4024b48:	a90153f3 	stp	x19, x20, [sp,#16]
 4024b4c:	2a0003f4 	mov	w20, w0
 4024b50:	97ffff68 	bl	40248f0 <cm_get_context>
 4024b54:	b5000120 	cbnz	x0, 4024b78 <cm_prepare_el3_exit+0x38>
 4024b58:	90000023 	adrp	x3, 4028000 <__func__.2394+0x40>
 4024b5c:	90000021 	adrp	x1, 4028000 <__func__.2394+0x40>
 4024b60:	90000020 	adrp	x0, 4028000 <__func__.2394+0x40>
 4024b64:	9105f863 	add	x3, x3, #0x17e
 4024b68:	52801982 	mov	w2, #0xcc                  	// #204
 4024b6c:	91060821 	add	x1, x1, #0x182
 4024b70:	9108c000 	add	x0, x0, #0x230
 4024b74:	1400002e 	b	4024c2c <cm_prepare_el3_exit+0xec>
 4024b78:	7100069f 	cmp	w20, #0x1
 4024b7c:	aa0003f3 	mov	x19, x0
 4024b80:	54000401 	b.ne	4024c00 <cm_prepare_el3_exit+0xc0>
 4024b84:	f9408000 	ldr	x0, [x0,#256]
 4024b88:	36400100 	tbz	w0, #8, 4024ba8 <cm_prepare_el3_exit+0x68>
 4024b8c:	f940aa60 	ldr	x0, [x19,#336]
 4024b90:	52810601 	mov	w1, #0x830                 	// #2096
 4024b94:	72a618a1 	movk	w1, #0x30c5, lsl #16
 4024b98:	12067800 	and	w0, w0, #0xfdffffff
 4024b9c:	2a010000 	orr	w0, w0, w1
 4024ba0:	d51c1000 	msr	sctlr_el2, x0
 4024ba4:	14000017 	b	4024c00 <cm_prepare_el3_exit+0xc0>
 4024ba8:	d5380401 	mrs	x1, id_aa64pfr0_el1
 4024bac:	f2780c3f 	tst	x1, #0xf00
 4024bb0:	54000280 	b.eq	4024c00 <cm_prepare_el3_exit+0xc0>
 4024bb4:	12160000 	and	w0, w0, #0x400
 4024bb8:	d2800001 	mov	x1, #0x0                   	// #0
 4024bbc:	6b1f001f 	cmp	w0, wzr
 4024bc0:	d2b00000 	mov	x0, #0x80000000            	// #2147483648
 4024bc4:	9a9f1000 	csel	x0, x0, xzr, ne
 4024bc8:	d51c1100 	msr	hcr_el2, x0
 4024bcc:	d53c1140 	mrs	x0, cptr_el2
 4024bd0:	529f7fe2 	mov	w2, #0xfbff                	// #64511
 4024bd4:	72affde2 	movk	w2, #0x7fef, lsl #16
 4024bd8:	0a000040 	and	w0, w2, w0
 4024bdc:	d51c1140 	msr	cptr_el2, x0
 4024be0:	d2800060 	mov	x0, #0x3                   	// #3
 4024be4:	d51ce100 	msr	cnthctl_el2, x0
 4024be8:	d51ce061 	msr	cntvoff_el2, x1
 4024bec:	d5380000 	mrs	x0, midr_el1
 4024bf0:	d51c0000 	msr	vpidr_el2, x0
 4024bf4:	d53800a0 	mrs	x0, mpidr_el1
 4024bf8:	d51c00a0 	msr	vmpidr_el2, x0
 4024bfc:	d51c2101 	msr	vttbr_el2, x1
 4024c00:	91048260 	add	x0, x19, #0x120
 4024c04:	94000874 	bl	4026dd4 <el1_sysregs_context_restore>
 4024c08:	d5384200 	mrs	x0, spsel
 4024c0c:	b4000120 	cbz	x0, 4024c30 <cm_prepare_el3_exit+0xf0>
 4024c10:	90000023 	adrp	x3, 4028000 <__func__.2394+0x40>
 4024c14:	90000021 	adrp	x1, 4028000 <__func__.2394+0x40>
 4024c18:	90000020 	adrp	x0, 4028000 <__func__.2394+0x40>
 4024c1c:	91066063 	add	x3, x3, #0x198
 4024c20:	52800c02 	mov	w2, #0x60                  	// #96
 4024c24:	9106bc21 	add	x1, x1, #0x1af
 4024c28:	91086000 	add	x0, x0, #0x218
 4024c2c:	9400071e 	bl	40268a4 <__assert>
 4024c30:	d50041bf 	msr	spsel, #0x1
 4024c34:	9100027f 	mov	sp, x19
 4024c38:	d50040bf 	msr	spsel, #0x0
 4024c3c:	a94153f3 	ldp	x19, x20, [sp,#16]
 4024c40:	a8c27bfd 	ldp	x29, x30, [sp],#32
 4024c44:	d65f03c0 	ret

0000000004024c48 <std_svc_setup>:
 4024c48:	140004e4 	b	4025fd8 <psci_setup>

0000000004024c4c <std_svc_smc_handler>:
 4024c4c:	721b281f 	tst	w0, #0xffe0
 4024c50:	2a0003e9 	mov	w9, w0
 4024c54:	aa0603e8 	mov	x8, x6
 4024c58:	54000041 	b.ne	4024c60 <std_svc_smc_handler+0x14>
 4024c5c:	1400048f 	b	4025e98 <psci_smc_handler>
 4024c60:	529fe020 	mov	w0, #0xff01                	// #65281
 4024c64:	72b08000 	movk	w0, #0x8400, lsl #16
 4024c68:	6b00013f 	cmp	w9, w0
 4024c6c:	54000140 	b.eq	4024c94 <std_svc_smc_handler+0x48>
 4024c70:	11000800 	add	w0, w0, #0x2
 4024c74:	6b00013f 	cmp	w9, w0
 4024c78:	54000220 	b.eq	4024cbc <std_svc_smc_handler+0x70>
 4024c7c:	529fe000 	mov	w0, #0xff00                	// #65280
 4024c80:	72b08000 	movk	w0, #0x8400, lsl #16
 4024c84:	6b00013f 	cmp	w9, w0
 4024c88:	54000201 	b.ne	4024cc8 <std_svc_smc_handler+0x7c>
 4024c8c:	d2800240 	mov	x0, #0x12                  	// #18
 4024c90:	1400000f 	b	4024ccc <std_svc_smc_handler+0x80>
 4024c94:	90000020 	adrp	x0, 4028000 <__func__.2394+0x40>
 4024c98:	91094000 	add	x0, x0, #0x250
 4024c9c:	b9400c01 	ldr	w1, [x0,#12]
 4024ca0:	f9000cc1 	str	x1, [x6,#24]
 4024ca4:	b9400801 	ldr	w1, [x0,#8]
 4024ca8:	b9400400 	ldr	w0, [x0,#4]
 4024cac:	a90084c0 	stp	x0, x1, [x6,#8]
 4024cb0:	d2920b60 	mov	x0, #0x905b                	// #36955
 4024cb4:	f2a211a0 	movk	x0, #0x108d, lsl #16
 4024cb8:	14000005 	b	4024ccc <std_svc_smc_handler+0x80>
 4024cbc:	d2800020 	mov	x0, #0x1                   	// #1
 4024cc0:	a90000df 	stp	xzr, x0, [x6]
 4024cc4:	14000003 	b	4024cd0 <std_svc_smc_handler+0x84>
 4024cc8:	b2407fe0 	mov	x0, #0xffffffff            	// #4294967295
 4024ccc:	f9000100 	str	x0, [x8]
 4024cd0:	aa0803e0 	mov	x0, x8
 4024cd4:	d65f03c0 	ret

0000000004024cd8 <psci_do_cpu_off>:
 4024cd8:	a9bc7bfd 	stp	x29, x30, [sp,#-64]!
 4024cdc:	910003fd 	mov	x29, sp
 4024ce0:	a9025bf5 	stp	x21, x22, [sp,#32]
 4024ce4:	a90153f3 	stp	x19, x20, [sp,#16]
 4024ce8:	2a0003f5 	mov	w21, w0
 4024cec:	940009fc 	bl	40274dc <plat_my_core_pos>
 4024cf0:	2a0003f6 	mov	w22, w0
 4024cf4:	f0000020 	adrp	x0, 402b000 <psci_ns_context+0x3d0>
 4024cf8:	f9414001 	ldr	x1, [x0,#640]
 4024cfc:	f9400821 	ldr	x1, [x1,#16]
 4024d00:	b5000121 	cbnz	x1, 4024d24 <psci_do_cpu_off+0x4c>
 4024d04:	90000023 	adrp	x3, 4028000 <__func__.2394+0x40>
 4024d08:	90000021 	adrp	x1, 4028000 <__func__.2394+0x40>
 4024d0c:	90000020 	adrp	x0, 4028000 <__func__.2394+0x40>
 4024d10:	91098063 	add	x3, x3, #0x260
 4024d14:	52800902 	mov	w2, #0x48                  	// #72
 4024d18:	910a0421 	add	x1, x1, #0x281
 4024d1c:	910aa000 	add	x0, x0, #0x2a8
 4024d20:	940006e1 	bl	40268a4 <__assert>
 4024d24:	aa0003f4 	mov	x20, x0
 4024d28:	2a1603e1 	mov	w1, w22
 4024d2c:	2a1503e0 	mov	w0, w21
 4024d30:	9400026e 	bl	40256e8 <psci_acquire_pwr_domain_locks>
 4024d34:	f0000020 	adrp	x0, 402b000 <psci_ns_context+0x3d0>
 4024d38:	f9414400 	ldr	x0, [x0,#648]
 4024d3c:	b5000200 	cbnz	x0, 4024d7c <psci_do_cpu_off+0xa4>
 4024d40:	52800040 	mov	w0, #0x2                   	// #2
 4024d44:	9100e3a1 	add	x1, x29, #0x38
 4024d48:	3900e3a0 	strb	w0, [x29,#56]
 4024d4c:	52800013 	mov	w19, #0x0                   	// #0
 4024d50:	3900e7a0 	strb	w0, [x29,#57]
 4024d54:	2a1503e0 	mov	w0, w21
 4024d58:	940001db 	bl	40254c4 <psci_do_state_coordination>
 4024d5c:	9100e3a0 	add	x0, x29, #0x38
 4024d60:	94000225 	bl	40255f4 <psci_find_max_off_lvl>
 4024d64:	940008dd 	bl	40270d8 <psci_do_pwrdown_cache_maintenance>
 4024d68:	f9414280 	ldr	x0, [x20,#640]
 4024d6c:	f9400801 	ldr	x1, [x0,#16]
 4024d70:	9100e3a0 	add	x0, x29, #0x38
 4024d74:	d63f0020 	blr	x1
 4024d78:	14000007 	b	4024d94 <psci_do_cpu_off+0xbc>
 4024d7c:	f9400401 	ldr	x1, [x0,#8]
 4024d80:	b4fffe01 	cbz	x1, 4024d40 <psci_do_cpu_off+0x68>
 4024d84:	d2800000 	mov	x0, #0x0                   	// #0
 4024d88:	d63f0020 	blr	x1
 4024d8c:	2a0003f3 	mov	w19, w0
 4024d90:	34fffd80 	cbz	w0, 4024d40 <psci_do_cpu_off+0x68>
 4024d94:	2a1603e1 	mov	w1, w22
 4024d98:	2a1503e0 	mov	w0, w21
 4024d9c:	94000272 	bl	4025764 <psci_release_pwr_domain_locks>
 4024da0:	350001b3 	cbnz	w19, 4024dd4 <psci_do_cpu_off+0xfc>
 4024da4:	d53ed040 	mrs	x0, tpidr_el3
 4024da8:	d2800081 	mov	x1, #0x4                   	// #4
 4024dac:	91016000 	add	x0, x0, #0x58
 4024db0:	94000921 	bl	4027234 <flush_dcache_range>
 4024db4:	d53ed040 	mrs	x0, tpidr_el3
 4024db8:	52800021 	mov	w1, #0x1                   	// #1
 4024dbc:	b9005801 	str	w1, [x0,#88]
 4024dc0:	d53ed040 	mrs	x0, tpidr_el3
 4024dc4:	d2800081 	mov	x1, #0x4                   	// #4
 4024dc8:	91016000 	add	x0, x0, #0x58
 4024dcc:	94000934 	bl	402729c <inv_dcache_range>
 4024dd0:	940008bf 	bl	40270cc <psci_power_down_wfi>
 4024dd4:	2a1303e0 	mov	w0, w19
 4024dd8:	a94153f3 	ldp	x19, x20, [sp,#16]
 4024ddc:	a9425bf5 	ldp	x21, x22, [sp,#32]
 4024de0:	a8c47bfd 	ldp	x29, x30, [sp],#64
 4024de4:	d65f03c0 	ret

0000000004024de8 <psci_set_aff_info_state_by_idx>:
 4024de8:	a9be7bfd 	stp	x29, x30, [sp,#-32]!
 4024dec:	910003fd 	mov	x29, sp
 4024df0:	a90153f3 	stp	x19, x20, [sp,#16]
 4024df4:	2a0103f4 	mov	w20, w1
 4024df8:	2a0003f3 	mov	w19, w0
 4024dfc:	94000734 	bl	4026acc <_cpu_data_by_index>
 4024e00:	b9005814 	str	w20, [x0,#88]
 4024e04:	2a1303e0 	mov	w0, w19
 4024e08:	94000731 	bl	4026acc <_cpu_data_by_index>
 4024e0c:	91016000 	add	x0, x0, #0x58
 4024e10:	a94153f3 	ldp	x19, x20, [sp,#16]
 4024e14:	a8c27bfd 	ldp	x29, x30, [sp],#32
 4024e18:	d2800081 	mov	x1, #0x4                   	// #4
 4024e1c:	14000906 	b	4027234 <flush_dcache_range>

0000000004024e20 <psci_cpu_on_start>:
 4024e20:	a9bc7bfd 	stp	x29, x30, [sp,#-64]!
 4024e24:	910003fd 	mov	x29, sp
 4024e28:	a90153f3 	stp	x19, x20, [sp,#16]
 4024e2c:	f0000034 	adrp	x20, 402b000 <psci_ns_context+0x3d0>
 4024e30:	f9001bf7 	str	x23, [sp,#48]
 4024e34:	a9025bf5 	stp	x21, x22, [sp,#32]
 4024e38:	aa0003f7 	mov	x23, x0
 4024e3c:	aa0103f6 	mov	x22, x1
 4024e40:	97fff8d8 	bl	40231a0 <plat_core_pos_by_mpidr>
 4024e44:	2a0003f5 	mov	w21, w0
 4024e48:	f9414280 	ldr	x0, [x20,#640]
 4024e4c:	f9400401 	ldr	x1, [x0,#8]
 4024e50:	b4000061 	cbz	x1, 4024e5c <psci_cpu_on_start+0x3c>
 4024e54:	f9401000 	ldr	x0, [x0,#32]
 4024e58:	b50000a0 	cbnz	x0, 4024e6c <psci_cpu_on_start+0x4c>
 4024e5c:	90000023 	adrp	x3, 4028000 <__func__.2394+0x40>
 4024e60:	52800c62 	mov	w2, #0x63                  	// #99
 4024e64:	910b3863 	add	x3, x3, #0x2ce
 4024e68:	1400002d 	b	4024f1c <psci_cpu_on_start+0xfc>
 4024e6c:	f0000020 	adrp	x0, 402b000 <psci_ns_context+0x3d0>
 4024e70:	d37c7eb3 	ubfiz	x19, x21, #4, #32
 4024e74:	91090000 	add	x0, x0, #0x240
 4024e78:	8b000273 	add	x19, x19, x0
 4024e7c:	91003273 	add	x19, x19, #0xc
 4024e80:	aa1303e0 	mov	x0, x19
 4024e84:	94000872 	bl	402704c <spin_lock>
 4024e88:	2a1503e0 	mov	w0, w21
 4024e8c:	94000710 	bl	4026acc <_cpu_data_by_index>
 4024e90:	b9405800 	ldr	w0, [x0,#88]
 4024e94:	34000600 	cbz	w0, 4024f54 <psci_cpu_on_start+0x134>
 4024e98:	7100081f 	cmp	w0, #0x2
 4024e9c:	54000600 	b.eq	4024f5c <psci_cpu_on_start+0x13c>
 4024ea0:	7100041f 	cmp	w0, #0x1
 4024ea4:	54000120 	b.eq	4024ec8 <psci_cpu_on_start+0xa8>
 4024ea8:	90000023 	adrp	x3, 4028000 <__func__.2394+0x40>
 4024eac:	90000021 	adrp	x1, 4028000 <__func__.2394+0x40>
 4024eb0:	90000020 	adrp	x0, 4028000 <__func__.2394+0x40>
 4024eb4:	910ce063 	add	x3, x3, #0x338
 4024eb8:	528006e2 	mov	w2, #0x37                  	// #55
 4024ebc:	910c6021 	add	x1, x1, #0x318
 4024ec0:	910ae000 	add	x0, x0, #0x2b8
 4024ec4:	94000678 	bl	40268a4 <__assert>
 4024ec8:	f0000020 	adrp	x0, 402b000 <psci_ns_context+0x3d0>
 4024ecc:	f9414400 	ldr	x0, [x0,#648]
 4024ed0:	b40000a0 	cbz	x0, 4024ee4 <psci_cpu_on_start+0xc4>
 4024ed4:	f9400001 	ldr	x1, [x0]
 4024ed8:	b4000061 	cbz	x1, 4024ee4 <psci_cpu_on_start+0xc4>
 4024edc:	aa1703e0 	mov	x0, x23
 4024ee0:	d63f0020 	blr	x1
 4024ee4:	52800041 	mov	w1, #0x2                   	// #2
 4024ee8:	2a1503e0 	mov	w0, w21
 4024eec:	97ffffbf 	bl	4024de8 <psci_set_aff_info_state_by_idx>
 4024ef0:	f9414280 	ldr	x0, [x20,#640]
 4024ef4:	f9400401 	ldr	x1, [x0,#8]
 4024ef8:	aa1703e0 	mov	x0, x23
 4024efc:	d63f0020 	blr	x1
 4024f00:	6b1f001f 	cmp	w0, wzr
 4024f04:	3a461804 	ccmn	w0, #0x6, #0x4, ne
 4024f08:	2a0003f4 	mov	w20, w0
 4024f0c:	54000120 	b.eq	4024f30 <psci_cpu_on_start+0x110>
 4024f10:	90000023 	adrp	x3, 4028000 <__func__.2394+0x40>
 4024f14:	528010c2 	mov	w2, #0x86                  	// #134
 4024f18:	910d4c63 	add	x3, x3, #0x353
 4024f1c:	90000021 	adrp	x1, 4028000 <__func__.2394+0x40>
 4024f20:	90000020 	adrp	x0, 4028000 <__func__.2394+0x40>
 4024f24:	910c6021 	add	x1, x1, #0x318
 4024f28:	910ee000 	add	x0, x0, #0x3b8
 4024f2c:	17ffffe6 	b	4024ec4 <psci_cpu_on_start+0xa4>
 4024f30:	350000a0 	cbnz	w0, 4024f44 <psci_cpu_on_start+0x124>
 4024f34:	aa1603e1 	mov	x1, x22
 4024f38:	2a1503e0 	mov	w0, w21
 4024f3c:	97fffeeb 	bl	4024ae8 <cm_init_context_by_index>
 4024f40:	14000008 	b	4024f60 <psci_cpu_on_start+0x140>
 4024f44:	52800021 	mov	w1, #0x1                   	// #1
 4024f48:	2a1503e0 	mov	w0, w21
 4024f4c:	97ffffa7 	bl	4024de8 <psci_set_aff_info_state_by_idx>
 4024f50:	14000004 	b	4024f60 <psci_cpu_on_start+0x140>
 4024f54:	12800074 	mov	w20, #0xfffffffc            	// #-4
 4024f58:	14000002 	b	4024f60 <psci_cpu_on_start+0x140>
 4024f5c:	12800094 	mov	w20, #0xfffffffb            	// #-5
 4024f60:	aa1303e0 	mov	x0, x19
 4024f64:	94000842 	bl	402706c <spin_unlock>
 4024f68:	f9401bf7 	ldr	x23, [sp,#48]
 4024f6c:	2a1403e0 	mov	w0, w20
 4024f70:	a94153f3 	ldp	x19, x20, [sp,#16]
 4024f74:	a9425bf5 	ldp	x21, x22, [sp,#32]
 4024f78:	a8c47bfd 	ldp	x29, x30, [sp],#64
 4024f7c:	d65f03c0 	ret

0000000004024f80 <psci_cpu_on_finish>:
 4024f80:	a9bd7bfd 	stp	x29, x30, [sp,#-48]!
 4024f84:	910003fd 	mov	x29, sp
 4024f88:	f90013f5 	str	x21, [sp,#32]
 4024f8c:	2a0003f5 	mov	w21, w0
 4024f90:	f0000020 	adrp	x0, 402b000 <psci_ns_context+0x3d0>
 4024f94:	a90153f3 	stp	x19, x20, [sp,#16]
 4024f98:	f0000033 	adrp	x19, 402b000 <psci_ns_context+0x3d0>
 4024f9c:	d37c7eb4 	ubfiz	x20, x21, #4, #32
 4024fa0:	f9414000 	ldr	x0, [x0,#640]
 4024fa4:	f9401002 	ldr	x2, [x0,#32]
 4024fa8:	aa0103e0 	mov	x0, x1
 4024fac:	d63f0040 	blr	x2
 4024fb0:	9400085d 	bl	4027124 <psci_do_pwrup_cache_maintenance>
 4024fb4:	97fffe47 	bl	40248d0 <bl31_arch_setup>
 4024fb8:	91090260 	add	x0, x19, #0x240
 4024fbc:	8b000294 	add	x20, x20, x0
 4024fc0:	91003294 	add	x20, x20, #0xc
 4024fc4:	aa1403e0 	mov	x0, x20
 4024fc8:	94000821 	bl	402704c <spin_lock>
 4024fcc:	aa1403e0 	mov	x0, x20
 4024fd0:	94000827 	bl	402706c <spin_unlock>
 4024fd4:	d53ed040 	mrs	x0, tpidr_el3
 4024fd8:	b9405800 	ldr	w0, [x0,#88]
 4024fdc:	7100081f 	cmp	w0, #0x2
 4024fe0:	54000120 	b.eq	4025004 <psci_cpu_on_finish+0x84>
 4024fe4:	90000023 	adrp	x3, 4028000 <__func__.2394+0x40>
 4024fe8:	90000021 	adrp	x1, 4028000 <__func__.2394+0x40>
 4024fec:	90000020 	adrp	x0, 4028000 <__func__.2394+0x40>
 4024ff0:	910e1063 	add	x3, x3, #0x384
 4024ff4:	52801742 	mov	w2, #0xba                  	// #186
 4024ff8:	910c6021 	add	x1, x1, #0x318
 4024ffc:	910f4000 	add	x0, x0, #0x3d0
 4025000:	94000629 	bl	40268a4 <__assert>
 4025004:	d0000020 	adrp	x0, 402b000 <psci_ns_context+0x3d0>
 4025008:	f9414400 	ldr	x0, [x0,#648]
 402500c:	b40000a0 	cbz	x0, 4025020 <psci_cpu_on_finish+0xa0>
 4025010:	f9400c01 	ldr	x1, [x0,#24]
 4025014:	b4000061 	cbz	x1, 4025020 <psci_cpu_on_finish+0xa0>
 4025018:	d2800000 	mov	x0, #0x0                   	// #0
 402501c:	d63f0020 	blr	x1
 4025020:	d53800a1 	mrs	x1, mpidr_el1
 4025024:	91090273 	add	x19, x19, #0x240
 4025028:	d37c7eb5 	ubfiz	x21, x21, #4, #32
 402502c:	b2405fe0 	mov	x0, #0xffffff              	// #16777215
 4025030:	f2c01fe0 	movk	x0, #0xff, lsl #32
 4025034:	8a000020 	and	x0, x1, x0
 4025038:	f8356a60 	str	x0, [x19,x21]
 402503c:	a94153f3 	ldp	x19, x20, [sp,#16]
 4025040:	f94013f5 	ldr	x21, [sp,#32]
 4025044:	52800020 	mov	w0, #0x1                   	// #1
 4025048:	a8c37bfd 	ldp	x29, x30, [sp],#48
 402504c:	17fffebd 	b	4024b40 <cm_prepare_el3_exit>

0000000004025050 <psci_cpu_suspend_start>:
 4025050:	a9bb7bfd 	stp	x29, x30, [sp,#-80]!
 4025054:	910003fd 	mov	x29, sp
 4025058:	a90153f3 	stp	x19, x20, [sp,#16]
 402505c:	d0000034 	adrp	x20, 402b000 <psci_ns_context+0x3d0>
 4025060:	2a0103f3 	mov	w19, w1
 4025064:	a9025bf5 	stp	x21, x22, [sp,#32]
 4025068:	a90363f7 	stp	x23, x24, [sp,#48]
 402506c:	aa0203f6 	mov	x22, x2
 4025070:	aa0003f8 	mov	x24, x0
 4025074:	2a0303f7 	mov	w23, w3
 4025078:	f90023f9 	str	x25, [sp,#64]
 402507c:	94000918 	bl	40274dc <plat_my_core_pos>
 4025080:	2a0003f5 	mov	w21, w0
 4025084:	f9414280 	ldr	x0, [x20,#640]
 4025088:	f9400c01 	ldr	x1, [x0,#24]
 402508c:	b4000061 	cbz	x1, 4025098 <psci_cpu_suspend_start+0x48>
 4025090:	f9401400 	ldr	x0, [x0,#40]
 4025094:	b5000120 	cbnz	x0, 40250b8 <psci_cpu_suspend_start+0x68>
 4025098:	f0000003 	adrp	x3, 4028000 <__func__.2394+0x40>
 402509c:	f0000001 	adrp	x1, 4028000 <__func__.2394+0x40>
 40250a0:	f0000000 	adrp	x0, 4028000 <__func__.2394+0x40>
 40250a4:	91105c63 	add	x3, x3, #0x417
 40250a8:	52801202 	mov	w2, #0x90                  	// #144
 40250ac:	9111ac21 	add	x1, x1, #0x46b
 40250b0:	91100000 	add	x0, x0, #0x400
 40250b4:	940005fc 	bl	40268a4 <__assert>
 40250b8:	2a1503e1 	mov	w1, w21
 40250bc:	2a1303e0 	mov	w0, w19
 40250c0:	9400018a 	bl	40256e8 <psci_acquire_pwr_domain_locks>
 40250c4:	d538c100 	mrs	x0, isr_el1
 40250c8:	52800039 	mov	w25, #0x1                   	// #1
 40250cc:	b50003c0 	cbnz	x0, 4025144 <psci_cpu_suspend_start+0xf4>
 40250d0:	aa1603e1 	mov	x1, x22
 40250d4:	2a1303e0 	mov	w0, w19
 40250d8:	940000fb 	bl	40254c4 <psci_do_state_coordination>
 40250dc:	340002b7 	cbz	w23, 4025130 <psci_cpu_suspend_start+0xe0>
 40250e0:	aa1603e0 	mov	x0, x22
 40250e4:	94000144 	bl	40255f4 <psci_find_max_off_lvl>
 40250e8:	2a0003f9 	mov	w25, w0
 40250ec:	d53ed040 	mrs	x0, tpidr_el3
 40250f0:	39017013 	strb	w19, [x0,#92]
 40250f4:	d53ed040 	mrs	x0, tpidr_el3
 40250f8:	d2800021 	mov	x1, #0x1                   	// #1
 40250fc:	91017000 	add	x0, x0, #0x5c
 4025100:	9400084d 	bl	4027234 <flush_dcache_range>
 4025104:	d0000020 	adrp	x0, 402b000 <psci_ns_context+0x3d0>
 4025108:	f9414400 	ldr	x0, [x0,#648]
 402510c:	b40000a0 	cbz	x0, 4025120 <psci_cpu_suspend_start+0xd0>
 4025110:	f9400801 	ldr	x1, [x0,#16]
 4025114:	b4000061 	cbz	x1, 4025120 <psci_cpu_suspend_start+0xd0>
 4025118:	2a1903e0 	mov	w0, w25
 402511c:	d63f0020 	blr	x1
 4025120:	aa1803e0 	mov	x0, x24
 4025124:	97fffe7c 	bl	4024b14 <cm_init_my_context>
 4025128:	2a1903e0 	mov	w0, w25
 402512c:	940007eb 	bl	40270d8 <psci_do_pwrdown_cache_maintenance>
 4025130:	f9414280 	ldr	x0, [x20,#640]
 4025134:	52800019 	mov	w25, #0x0                   	// #0
 4025138:	f9400c01 	ldr	x1, [x0,#24]
 402513c:	aa1603e0 	mov	x0, x22
 4025140:	d63f0020 	blr	x1
 4025144:	2a1503e1 	mov	w1, w21
 4025148:	2a1303e0 	mov	w0, w19
 402514c:	94000186 	bl	4025764 <psci_release_pwr_domain_locks>
 4025150:	350002b9 	cbnz	w25, 40251a4 <psci_cpu_suspend_start+0x154>
 4025154:	34000057 	cbz	w23, 402515c <psci_cpu_suspend_start+0x10c>
 4025158:	940007dd 	bl	40270cc <psci_power_down_wfi>
 402515c:	d503207f 	wfi
 4025160:	2a1503e1 	mov	w1, w21
 4025164:	2a1303e0 	mov	w0, w19
 4025168:	94000160 	bl	40256e8 <psci_acquire_pwr_domain_locks>
 402516c:	f9414280 	ldr	x0, [x20,#640]
 4025170:	f9401401 	ldr	x1, [x0,#40]
 4025174:	aa1603e0 	mov	x0, x22
 4025178:	d63f0020 	blr	x1
 402517c:	2a1303e0 	mov	w0, w19
 4025180:	940000a6 	bl	4025418 <psci_set_pwr_domains_to_run>
 4025184:	f94023f9 	ldr	x25, [sp,#64]
 4025188:	2a1503e1 	mov	w1, w21
 402518c:	2a1303e0 	mov	w0, w19
 4025190:	a9425bf5 	ldp	x21, x22, [sp,#32]
 4025194:	a94153f3 	ldp	x19, x20, [sp,#16]
 4025198:	a94363f7 	ldp	x23, x24, [sp,#48]
 402519c:	a8c57bfd 	ldp	x29, x30, [sp],#80
 40251a0:	14000171 	b	4025764 <psci_release_pwr_domain_locks>
 40251a4:	a94153f3 	ldp	x19, x20, [sp,#16]
 40251a8:	a9425bf5 	ldp	x21, x22, [sp,#32]
 40251ac:	a94363f7 	ldp	x23, x24, [sp,#48]
 40251b0:	f94023f9 	ldr	x25, [sp,#64]
 40251b4:	a8c57bfd 	ldp	x29, x30, [sp],#80
 40251b8:	d65f03c0 	ret

00000000040251bc <psci_cpu_suspend_finish>:
 40251bc:	a9be7bfd 	stp	x29, x30, [sp,#-32]!
 40251c0:	910003fd 	mov	x29, sp
 40251c4:	a90153f3 	stp	x19, x20, [sp,#16]
 40251c8:	d53ed040 	mrs	x0, tpidr_el3
 40251cc:	b9405800 	ldr	w0, [x0,#88]
 40251d0:	350000a0 	cbnz	w0, 40251e4 <psci_cpu_suspend_finish+0x28>
 40251d4:	39400020 	ldrb	w0, [x1]
 40251d8:	aa0103f3 	mov	x19, x1
 40251dc:	7100081f 	cmp	w0, #0x2
 40251e0:	540000a0 	b.eq	40251f4 <psci_cpu_suspend_finish+0x38>
 40251e4:	f0000003 	adrp	x3, 4028000 <__func__.2394+0x40>
 40251e8:	52801bc2 	mov	w2, #0xde                  	// #222
 40251ec:	91124063 	add	x3, x3, #0x490
 40251f0:	14000015 	b	4025244 <psci_cpu_suspend_finish+0x88>
 40251f4:	d0000020 	adrp	x0, 402b000 <psci_ns_context+0x3d0>
 40251f8:	f9414000 	ldr	x0, [x0,#640]
 40251fc:	f9401401 	ldr	x1, [x0,#40]
 4025200:	aa1303e0 	mov	x0, x19
 4025204:	d63f0020 	blr	x1
 4025208:	940007c7 	bl	4027124 <psci_do_pwrup_cache_maintenance>
 402520c:	97fffce3 	bl	4024598 <plat_get_syscnt_freq>
 4025210:	d51be000 	msr	cntfrq_el0, x0
 4025214:	d0000034 	adrp	x20, 402b000 <psci_ns_context+0x3d0>
 4025218:	f9414680 	ldr	x0, [x20,#648]
 402521c:	b4000260 	cbz	x0, 4025268 <psci_cpu_suspend_finish+0xac>
 4025220:	f9400800 	ldr	x0, [x0,#16]
 4025224:	b4000220 	cbz	x0, 4025268 <psci_cpu_suspend_finish+0xac>
 4025228:	aa1303e0 	mov	x0, x19
 402522c:	940000f2 	bl	40255f4 <psci_find_max_off_lvl>
 4025230:	7100081f 	cmp	w0, #0x2
 4025234:	54000121 	b.ne	4025258 <psci_cpu_suspend_finish+0x9c>
 4025238:	f0000003 	adrp	x3, 4028000 <__func__.2394+0x40>
 402523c:	52801f62 	mov	w2, #0xfb                  	// #251
 4025240:	91140463 	add	x3, x3, #0x501
 4025244:	f0000001 	adrp	x1, 4028000 <__func__.2394+0x40>
 4025248:	f0000000 	adrp	x0, 4028000 <__func__.2394+0x40>
 402524c:	9111ac21 	add	x1, x1, #0x46b
 4025250:	910fa000 	add	x0, x0, #0x3e8
 4025254:	94000594 	bl	40268a4 <__assert>
 4025258:	f9414681 	ldr	x1, [x20,#648]
 402525c:	2a0003e0 	mov	w0, w0
 4025260:	f9401021 	ldr	x1, [x1,#32]
 4025264:	d63f0020 	blr	x1
 4025268:	d53ed040 	mrs	x0, tpidr_el3
 402526c:	52800041 	mov	w1, #0x2                   	// #2
 4025270:	39017001 	strb	w1, [x0,#92]
 4025274:	52800020 	mov	w0, #0x1                   	// #1
 4025278:	a94153f3 	ldp	x19, x20, [sp,#16]
 402527c:	a8c27bfd 	ldp	x29, x30, [sp],#32
 4025280:	17fffe30 	b	4024b40 <cm_prepare_el3_exit>

0000000004025284 <psci_set_req_local_pwr_state.part.0>:
 4025284:	a9bf7bfd 	stp	x29, x30, [sp,#-16]!
 4025288:	f0000003 	adrp	x3, 4028000 <__func__.2394+0x40>
 402528c:	f0000001 	adrp	x1, 4028000 <__func__.2394+0x40>
 4025290:	f0000000 	adrp	x0, 4028000 <__func__.2394+0x40>
 4025294:	910003fd 	mov	x29, sp
 4025298:	91150863 	add	x3, x3, #0x542
 402529c:	52801b62 	mov	w2, #0xdb                  	// #219
 40252a0:	91157021 	add	x1, x1, #0x55c
 40252a4:	911be000 	add	x0, x0, #0x6f8
 40252a8:	9400057f 	bl	40268a4 <__assert>

00000000040252ac <psci_validate_power_state>:
 40252ac:	52bf9fc2 	mov	w2, #0xfcfe0000            	// #-50462720
 40252b0:	6a02001f 	tst	w0, w2
 40252b4:	54000201 	b.ne	40252f4 <psci_validate_power_state+0x48>
 40252b8:	d0000022 	adrp	x2, 402b000 <psci_ns_context+0x3d0>
 40252bc:	f9414042 	ldr	x2, [x2,#640]
 40252c0:	f9402042 	ldr	x2, [x2,#64]
 40252c4:	b5000162 	cbnz	x2, 40252f0 <psci_validate_power_state+0x44>
 40252c8:	a9bf7bfd 	stp	x29, x30, [sp,#-16]!
 40252cc:	f0000003 	adrp	x3, 4028000 <__func__.2394+0x40>
 40252d0:	f0000001 	adrp	x1, 4028000 <__func__.2394+0x40>
 40252d4:	f0000000 	adrp	x0, 4028000 <__func__.2394+0x40>
 40252d8:	910003fd 	mov	x29, sp
 40252dc:	91160063 	add	x3, x3, #0x580
 40252e0:	528011c2 	mov	w2, #0x8e                  	// #142
 40252e4:	91157021 	add	x1, x1, #0x55c
 40252e8:	9114a000 	add	x0, x0, #0x528
 40252ec:	9400056e 	bl	40268a4 <__assert>
 40252f0:	d61f0040 	br	x2
 40252f4:	12800020 	mov	w0, #0xfffffffe            	// #-2
 40252f8:	d65f03c0 	ret

00000000040252fc <psci_query_sys_suspend_pwrstate>:
 40252fc:	d0000021 	adrp	x1, 402b000 <psci_ns_context+0x3d0>
 4025300:	f9414021 	ldr	x1, [x1,#640]
 4025304:	f9402821 	ldr	x1, [x1,#80]
 4025308:	b5000161 	cbnz	x1, 4025334 <psci_query_sys_suspend_pwrstate+0x38>
 402530c:	a9bf7bfd 	stp	x29, x30, [sp,#-16]!
 4025310:	f0000003 	adrp	x3, 4028000 <__func__.2394+0x40>
 4025314:	f0000001 	adrp	x1, 4028000 <__func__.2394+0x40>
 4025318:	f0000000 	adrp	x0, 4028000 <__func__.2394+0x40>
 402531c:	910003fd 	mov	x29, sp
 4025320:	91169c63 	add	x3, x3, #0x5a7
 4025324:	528013c2 	mov	w2, #0x9e                  	// #158
 4025328:	91157021 	add	x1, x1, #0x55c
 402532c:	911aa000 	add	x0, x0, #0x6a8
 4025330:	9400055d 	bl	40268a4 <__assert>
 4025334:	d61f0020 	br	x1

0000000004025338 <psci_is_last_on_cpu>:
 4025338:	a9be7bfd 	stp	x29, x30, [sp,#-32]!
 402533c:	910003fd 	mov	x29, sp
 4025340:	a90153f3 	stp	x19, x20, [sp,#16]
 4025344:	94000866 	bl	40274dc <plat_my_core_pos>
 4025348:	52800013 	mov	w19, #0x0                   	// #0
 402534c:	2a0003f4 	mov	w20, w0
 4025350:	6b13029f 	cmp	w20, w19
 4025354:	54000221 	b.ne	4025398 <psci_is_last_on_cpu+0x60>
 4025358:	d53ed040 	mrs	x0, tpidr_el3
 402535c:	b9405800 	ldr	w0, [x0,#88]
 4025360:	350000c0 	cbnz	w0, 4025378 <psci_is_last_on_cpu+0x40>
 4025364:	11000673 	add	w19, w19, #0x1
 4025368:	71000a7f 	cmp	w19, #0x2
 402536c:	54ffff21 	b.ne	4025350 <psci_is_last_on_cpu+0x18>
 4025370:	52800020 	mov	w0, #0x1                   	// #1
 4025374:	1400000f 	b	40253b0 <psci_is_last_on_cpu+0x78>
 4025378:	f0000003 	adrp	x3, 4028000 <__func__.2394+0x40>
 402537c:	f0000001 	adrp	x1, 4028000 <__func__.2394+0x40>
 4025380:	f0000000 	adrp	x0, 4028000 <__func__.2394+0x40>
 4025384:	91175463 	add	x3, x3, #0x5d5
 4025388:	52801642 	mov	w2, #0xb2                  	// #178
 402538c:	91157021 	add	x1, x1, #0x55c
 4025390:	911b2000 	add	x0, x0, #0x6c8
 4025394:	94000544 	bl	40268a4 <__assert>
 4025398:	2a1303e0 	mov	w0, w19
 402539c:	940005cc 	bl	4026acc <_cpu_data_by_index>
 40253a0:	b9405800 	ldr	w0, [x0,#88]
 40253a4:	7100041f 	cmp	w0, #0x1
 40253a8:	54fffde0 	b.eq	4025364 <psci_is_last_on_cpu+0x2c>
 40253ac:	52800000 	mov	w0, #0x0                   	// #0
 40253b0:	a94153f3 	ldp	x19, x20, [sp,#16]
 40253b4:	a8c27bfd 	ldp	x29, x30, [sp],#32
 40253b8:	d65f03c0 	ret

00000000040253bc <psci_init_req_local_pwr_states>:
 40253bc:	d2800042 	mov	x2, #0x2                   	// #2
 40253c0:	b0000020 	adrp	x0, 402a000 <__RO_END_UNALIGNED__>
 40253c4:	2a0203e1 	mov	w1, w2
 40253c8:	91308000 	add	x0, x0, #0xc20
 40253cc:	1400053d 	b	40268c0 <memset>

00000000040253d0 <psci_get_parent_pwr_domain_nodes>:
 40253d0:	d0000023 	adrp	x3, 402b000 <psci_ns_context+0x3d0>
 40253d4:	d37c7c00 	ubfiz	x0, x0, #4, #32
 40253d8:	91090063 	add	x3, x3, #0x240
 40253dc:	d0000024 	adrp	x4, 402b000 <psci_ns_context+0x3d0>
 40253e0:	8b000060 	add	x0, x3, x0
 40253e4:	91098084 	add	x4, x4, #0x260
 40253e8:	d2800003 	mov	x3, #0x0                   	// #0
 40253ec:	b9400800 	ldr	w0, [x0,#8]
 40253f0:	11000465 	add	w5, w3, #0x1
 40253f4:	6b05003f 	cmp	w1, w5
 40253f8:	540000e3 	b.cc	4025414 <psci_get_parent_pwr_domain_nodes+0x44>
 40253fc:	b8237840 	str	w0, [x2,x3,lsl #2]
 4025400:	d37c7c00 	ubfiz	x0, x0, #4, #32
 4025404:	8b000080 	add	x0, x4, x0
 4025408:	91000463 	add	x3, x3, #0x1
 402540c:	b9400800 	ldr	w0, [x0,#8]
 4025410:	17fffff8 	b	40253f0 <psci_get_parent_pwr_domain_nodes+0x20>
 4025414:	d65f03c0 	ret

0000000004025418 <psci_set_pwr_domains_to_run>:
 4025418:	a9bd7bfd 	stp	x29, x30, [sp,#-48]!
 402541c:	910003fd 	mov	x29, sp
 4025420:	a9025bf5 	stp	x21, x22, [sp,#32]
 4025424:	a90153f3 	stp	x19, x20, [sp,#16]
 4025428:	2a0003f5 	mov	w21, w0
 402542c:	9400082c 	bl	40274dc <plat_my_core_pos>
 4025430:	2a0003f6 	mov	w22, w0
 4025434:	d0000020 	adrp	x0, 402b000 <psci_ns_context+0x3d0>
 4025438:	91090000 	add	x0, x0, #0x240
 402543c:	8b161000 	add	x0, x0, x22, lsl #4
 4025440:	b9400813 	ldr	w19, [x0,#8]
 4025444:	340002b5 	cbz	w21, 4025498 <psci_set_pwr_domains_to_run+0x80>
 4025448:	d0000020 	adrp	x0, 402b000 <psci_ns_context+0x3d0>
 402544c:	d37c7e73 	ubfiz	x19, x19, #4, #32
 4025450:	91098014 	add	x20, x0, #0x260
 4025454:	d2800201 	mov	x1, #0x10                  	// #16
 4025458:	8b130293 	add	x19, x20, x19
 402545c:	aa1303e0 	mov	x0, x19
 4025460:	3900327f 	strb	wzr, [x19,#12]
 4025464:	94000774 	bl	4027234 <flush_dcache_range>
 4025468:	b0000020 	adrp	x0, 402a000 <__RO_END_UNALIGNED__>
 402546c:	710006bf 	cmp	w21, #0x1
 4025470:	91308000 	add	x0, x0, #0xc20
 4025474:	3836681f 	strb	wzr, [x0,x22]
 4025478:	b9400a60 	ldr	w0, [x19,#8]
 402547c:	540000e9 	b.ls	4025498 <psci_set_pwr_domains_to_run+0x80>
 4025480:	d37c7c00 	ubfiz	x0, x0, #4, #32
 4025484:	d2800201 	mov	x1, #0x10                  	// #16
 4025488:	8b000280 	add	x0, x20, x0
 402548c:	3900301f 	strb	wzr, [x0,#12]
 4025490:	94000769 	bl	4027234 <flush_dcache_range>
 4025494:	97ffff7c 	bl	4025284 <psci_set_req_local_pwr_state.part.0>
 4025498:	d53ed040 	mrs	x0, tpidr_el3
 402549c:	b900581f 	str	wzr, [x0,#88]
 40254a0:	d53ed040 	mrs	x0, tpidr_el3
 40254a4:	3901741f 	strb	wzr, [x0,#93]
 40254a8:	d53ed040 	mrs	x0, tpidr_el3
 40254ac:	a94153f3 	ldp	x19, x20, [sp,#16]
 40254b0:	a9425bf5 	ldp	x21, x22, [sp,#32]
 40254b4:	a8c37bfd 	ldp	x29, x30, [sp],#48
 40254b8:	d2800101 	mov	x1, #0x8                   	// #8
 40254bc:	91016000 	add	x0, x0, #0x58
 40254c0:	1400075d 	b	4027234 <flush_dcache_range>

00000000040254c4 <psci_do_state_coordination>:
 40254c4:	a9bc7bfd 	stp	x29, x30, [sp,#-64]!
 40254c8:	910003fd 	mov	x29, sp
 40254cc:	a90153f3 	stp	x19, x20, [sp,#16]
 40254d0:	a9025bf5 	stp	x21, x22, [sp,#32]
 40254d4:	aa0103f4 	mov	x20, x1
 40254d8:	f9001bf7 	str	x23, [sp,#48]
 40254dc:	2a0003f5 	mov	w21, w0
 40254e0:	d0000033 	adrp	x19, 402b000 <psci_ns_context+0x3d0>
 40254e4:	940007fe 	bl	40274dc <plat_my_core_pos>
 40254e8:	2a0003f7 	mov	w23, w0
 40254ec:	91090261 	add	x1, x19, #0x240
 40254f0:	8b171021 	add	x1, x1, x23, lsl #4
 40254f4:	b9400820 	ldr	w0, [x1,#8]
 40254f8:	340003f5 	cbz	w21, 4025574 <psci_do_state_coordination+0xb0>
 40254fc:	b0000036 	adrp	x22, 402a000 <__RO_END_UNALIGNED__>
 4025500:	39400681 	ldrb	w1, [x20,#1]
 4025504:	913082d6 	add	x22, x22, #0xc20
 4025508:	d37c7c00 	ubfiz	x0, x0, #4, #32
 402550c:	38376ac1 	strb	w1, [x22,x23]
 4025510:	d0000021 	adrp	x1, 402b000 <psci_ns_context+0x3d0>
 4025514:	91098021 	add	x1, x1, #0x260
 4025518:	8b000022 	add	x2, x1, x0
 402551c:	b8606821 	ldr	w1, [x1,x0]
 4025520:	52800020 	mov	w0, #0x1                   	// #1
 4025524:	b9400442 	ldr	w2, [x2,#4]
 4025528:	8b0102c1 	add	x1, x22, x1
 402552c:	97fffc26 	bl	40245c4 <plat_get_target_pwr_state>
 4025530:	53001c01 	uxtb	w1, w0
 4025534:	6b1f003f 	cmp	w1, wzr
 4025538:	39000680 	strb	w0, [x20,#1]
 402553c:	52800040 	mov	w0, #0x2                   	// #2
 4025540:	1a9f1400 	csinc	w0, w0, wzr, ne
 4025544:	11000401 	add	w1, w0, #0x1
 4025548:	6b0102bf 	cmp	w21, w1
 402554c:	54000143 	b.cc	4025574 <psci_do_state_coordination+0xb0>
 4025550:	d37f0402 	ubfiz	x2, x0, #1, #2
 4025554:	38616a83 	ldrb	w3, [x20,x1]
 4025558:	8b0202d6 	add	x22, x22, x2
 402555c:	11000800 	add	w0, w0, #0x2
 4025560:	6b0002bf 	cmp	w21, w0
 4025564:	38376ac3 	strb	w3, [x22,x23]
 4025568:	38216a9f 	strb	wzr, [x20,x1]
 402556c:	54000043 	b.cc	4025574 <psci_do_state_coordination+0xb0>
 4025570:	97ffff45 	bl	4025284 <psci_set_req_local_pwr_state.part.0>
 4025574:	d53ed040 	mrs	x0, tpidr_el3
 4025578:	39400281 	ldrb	w1, [x20]
 402557c:	39017401 	strb	w1, [x0,#93]
 4025580:	d53ed040 	mrs	x0, tpidr_el3
 4025584:	d2800021 	mov	x1, #0x1                   	// #1
 4025588:	91017400 	add	x0, x0, #0x5d
 402558c:	91090273 	add	x19, x19, #0x240
 4025590:	d0000037 	adrp	x23, 402b000 <psci_ns_context+0x3d0>
 4025594:	94000728 	bl	4027234 <flush_dcache_range>
 4025598:	52800036 	mov	w22, #0x1                   	// #1
 402559c:	940007d0 	bl	40274dc <plat_my_core_pos>
 40255a0:	d37c7c00 	ubfiz	x0, x0, #4, #32
 40255a4:	8b000260 	add	x0, x19, x0
 40255a8:	910982f7 	add	x23, x23, #0x260
 40255ac:	b9400813 	ldr	w19, [x0,#8]
 40255b0:	6b1602bf 	cmp	w21, w22
 40255b4:	54000163 	b.cc	40255e0 <psci_do_state_coordination+0x11c>
 40255b8:	d37c7e73 	ubfiz	x19, x19, #4, #32
 40255bc:	38764a80 	ldrb	w0, [x20,w22,uxtw]
 40255c0:	8b1302f3 	add	x19, x23, x19
 40255c4:	d2800201 	mov	x1, #0x10                  	// #16
 40255c8:	110006d6 	add	w22, w22, #0x1
 40255cc:	39003260 	strb	w0, [x19,#12]
 40255d0:	aa1303e0 	mov	x0, x19
 40255d4:	94000718 	bl	4027234 <flush_dcache_range>
 40255d8:	b9400a73 	ldr	w19, [x19,#8]
 40255dc:	17fffff5 	b	40255b0 <psci_do_state_coordination+0xec>
 40255e0:	a94153f3 	ldp	x19, x20, [sp,#16]
 40255e4:	a9425bf5 	ldp	x21, x22, [sp,#32]
 40255e8:	f9401bf7 	ldr	x23, [sp,#48]
 40255ec:	a8c47bfd 	ldp	x29, x30, [sp],#64
 40255f0:	d65f03c0 	ret

00000000040255f4 <psci_find_max_off_lvl>:
 40255f4:	39400401 	ldrb	w1, [x0,#1]
 40255f8:	7100083f 	cmp	w1, #0x2
 40255fc:	540000e0 	b.eq	4025618 <psci_find_max_off_lvl+0x24>
 4025600:	39400001 	ldrb	w1, [x0]
 4025604:	52800040 	mov	w0, #0x2                   	// #2
 4025608:	6b00003f 	cmp	w1, w0
 402560c:	54000081 	b.ne	402561c <psci_find_max_off_lvl+0x28>
 4025610:	52800000 	mov	w0, #0x0                   	// #0
 4025614:	d65f03c0 	ret
 4025618:	52800020 	mov	w0, #0x1                   	// #1
 402561c:	d65f03c0 	ret

0000000004025620 <psci_find_target_suspend_lvl>:
 4025620:	39400401 	ldrb	w1, [x0,#1]
 4025624:	350000c1 	cbnz	w1, 402563c <psci_find_target_suspend_lvl+0x1c>
 4025628:	39400001 	ldrb	w1, [x0]
 402562c:	52800040 	mov	w0, #0x2                   	// #2
 4025630:	34000081 	cbz	w1, 4025640 <psci_find_target_suspend_lvl+0x20>
 4025634:	52800000 	mov	w0, #0x0                   	// #0
 4025638:	d65f03c0 	ret
 402563c:	52800020 	mov	w0, #0x1                   	// #1
 4025640:	d65f03c0 	ret

0000000004025644 <psci_validate_suspend_req>:
 4025644:	a9bf7bfd 	stp	x29, x30, [sp,#-16]!
 4025648:	aa0003e4 	mov	x4, x0
 402564c:	2a0103e3 	mov	w3, w1
 4025650:	910003fd 	mov	x29, sp
 4025654:	97fffff3 	bl	4025620 <psci_find_target_suspend_lvl>
 4025658:	7100081f 	cmp	w0, #0x2
 402565c:	54000380 	b.eq	40256cc <psci_validate_suspend_req+0x88>
 4025660:	2a0003e2 	mov	w2, w0
 4025664:	52800005 	mov	w5, #0x0                   	// #0
 4025668:	37f801c0 	tbnz	w0, #31, 40256a0 <psci_validate_suspend_req+0x5c>
 402566c:	3860c886 	ldrb	w6, [x4,w0,sxtw]
 4025670:	340000c6 	cbz	w6, 4025688 <psci_validate_suspend_req+0x44>
 4025674:	710004df 	cmp	w6, #0x1
 4025678:	52800041 	mov	w1, #0x2                   	// #2
 402567c:	540000c8 	b.hi	4025694 <psci_validate_suspend_req+0x50>
 4025680:	52800021 	mov	w1, #0x1                   	// #1
 4025684:	14000002 	b	402568c <psci_validate_suspend_req+0x48>
 4025688:	52800001 	mov	w1, #0x0                   	// #0
 402568c:	6b0100bf 	cmp	w5, w1
 4025690:	540001e8 	b.hi	40256cc <psci_validate_suspend_req+0x88>
 4025694:	51000400 	sub	w0, w0, #0x1
 4025698:	2a0103e5 	mov	w5, w1
 402569c:	17fffff3 	b	4025668 <psci_validate_suspend_req+0x24>
 40256a0:	aa0403e0 	mov	x0, x4
 40256a4:	97ffffd4 	bl	40255f4 <psci_find_max_off_lvl>
 40256a8:	6b00005f 	cmp	w2, w0
 40256ac:	2a0003e1 	mov	w1, w0
 40256b0:	54000120 	b.eq	40256d4 <psci_validate_suspend_req+0x90>
 40256b4:	52800000 	mov	w0, #0x0                   	// #0
 40256b8:	35000143 	cbnz	w3, 40256e0 <psci_validate_suspend_req+0x9c>
 40256bc:	7100083f 	cmp	w1, #0x2
 40256c0:	12800020 	mov	w0, #0xfffffffe            	// #-2
 40256c4:	1a8003e0 	csel	w0, wzr, w0, eq
 40256c8:	14000006 	b	40256e0 <psci_validate_suspend_req+0x9c>
 40256cc:	12800020 	mov	w0, #0xfffffffe            	// #-2
 40256d0:	14000004 	b	40256e0 <psci_validate_suspend_req+0x9c>
 40256d4:	6b1f007f 	cmp	w3, wzr
 40256d8:	12800020 	mov	w0, #0xfffffffe            	// #-2
 40256dc:	1a8013e0 	csel	w0, wzr, w0, ne
 40256e0:	a8c17bfd 	ldp	x29, x30, [sp],#16
 40256e4:	d65f03c0 	ret

00000000040256e8 <psci_acquire_pwr_domain_locks>:
 40256e8:	a9bc7bfd 	stp	x29, x30, [sp,#-64]!
 40256ec:	d37c7c21 	ubfiz	x1, x1, #4, #32
 40256f0:	910003fd 	mov	x29, sp
 40256f4:	f9001bf7 	str	x23, [sp,#48]
 40256f8:	2a0003f7 	mov	w23, w0
 40256fc:	d0000020 	adrp	x0, 402b000 <psci_ns_context+0x3d0>
 4025700:	91090000 	add	x0, x0, #0x240
 4025704:	8b010001 	add	x1, x0, x1
 4025708:	a90153f3 	stp	x19, x20, [sp,#16]
 402570c:	a9025bf5 	stp	x21, x22, [sp,#32]
 4025710:	b9400833 	ldr	w19, [x1,#8]
 4025714:	d0000035 	adrp	x21, 402b000 <psci_ns_context+0x3d0>
 4025718:	d0000036 	adrp	x22, 402b000 <psci_ns_context+0x3d0>
 402571c:	52800034 	mov	w20, #0x1                   	// #1
 4025720:	910b02b5 	add	x21, x21, #0x2c0
 4025724:	910982d6 	add	x22, x22, #0x260
 4025728:	6b17029f 	cmp	w20, w23
 402572c:	54000128 	b.hi	4025750 <psci_acquire_pwr_domain_locks+0x68>
 4025730:	d37c7e73 	ubfiz	x19, x19, #4, #32
 4025734:	11000694 	add	w20, w20, #0x1
 4025738:	8b1302d3 	add	x19, x22, x19
 402573c:	39403a60 	ldrb	w0, [x19,#14]
 4025740:	8b0006a0 	add	x0, x21, x0, lsl #1
 4025744:	94000313 	bl	4026390 <bakery_lock_get>
 4025748:	b9400a73 	ldr	w19, [x19,#8]
 402574c:	17fffff7 	b	4025728 <psci_acquire_pwr_domain_locks+0x40>
 4025750:	a94153f3 	ldp	x19, x20, [sp,#16]
 4025754:	a9425bf5 	ldp	x21, x22, [sp,#32]
 4025758:	f9401bf7 	ldr	x23, [sp,#48]
 402575c:	a8c47bfd 	ldp	x29, x30, [sp],#64
 4025760:	d65f03c0 	ret

0000000004025764 <psci_release_pwr_domain_locks>:
 4025764:	a9bc7bfd 	stp	x29, x30, [sp,#-64]!
 4025768:	910003fd 	mov	x29, sp
 402576c:	910103a2 	add	x2, x29, #0x40
 4025770:	f90013f5 	str	x21, [sp,#32]
 4025774:	a90153f3 	stp	x19, x20, [sp,#16]
 4025778:	d0000035 	adrp	x21, 402b000 <psci_ns_context+0x3d0>
 402577c:	2a0003f3 	mov	w19, w0
 4025780:	d0000034 	adrp	x20, 402b000 <psci_ns_context+0x3d0>
 4025784:	2a0103e0 	mov	w0, w1
 4025788:	b81f8c5f 	str	wzr, [x2,#-8]!
 402578c:	2a1303e1 	mov	w1, w19
 4025790:	910b0294 	add	x20, x20, #0x2c0
 4025794:	910982b5 	add	x21, x21, #0x260
 4025798:	97ffff0e 	bl	40253d0 <psci_get_parent_pwr_domain_nodes>
 402579c:	6b1f027f 	cmp	w19, wzr
 40257a0:	5400014d 	b.le	40257c8 <psci_release_pwr_domain_locks+0x64>
 40257a4:	51000673 	sub	w19, w19, #0x1
 40257a8:	910103a0 	add	x0, x29, #0x40
 40257ac:	8b33c800 	add	x0, x0, w19, sxtw #2
 40257b0:	b85f8000 	ldur	w0, [x0,#-8]
 40257b4:	8b0012a0 	add	x0, x21, x0, lsl #4
 40257b8:	39403800 	ldrb	w0, [x0,#14]
 40257bc:	8b000680 	add	x0, x20, x0, lsl #1
 40257c0:	94000359 	bl	4026524 <bakery_lock_release>
 40257c4:	17fffff6 	b	402579c <psci_release_pwr_domain_locks+0x38>
 40257c8:	a94153f3 	ldp	x19, x20, [sp,#16]
 40257cc:	f94013f5 	ldr	x21, [sp,#32]
 40257d0:	a8c47bfd 	ldp	x29, x30, [sp],#64
 40257d4:	d65f03c0 	ret

00000000040257d8 <psci_validate_mpidr>:
 40257d8:	a9bf7bfd 	stp	x29, x30, [sp,#-16]!
 40257dc:	910003fd 	mov	x29, sp
 40257e0:	97fff670 	bl	40231a0 <plat_core_pos_by_mpidr>
 40257e4:	6b1f001f 	cmp	w0, wzr
 40257e8:	12800020 	mov	w0, #0xfffffffe            	// #-2
 40257ec:	1a9fb000 	csel	w0, w0, wzr, lt
 40257f0:	a8c17bfd 	ldp	x29, x30, [sp],#16
 40257f4:	d65f03c0 	ret

00000000040257f8 <psci_validate_entry_point>:
 40257f8:	a9bb7bfd 	stp	x29, x30, [sp,#-80]!
 40257fc:	910003fd 	mov	x29, sp
 4025800:	a90153f3 	stp	x19, x20, [sp,#16]
 4025804:	aa0003f3 	mov	x19, x0
 4025808:	d0000020 	adrp	x0, 402b000 <psci_ns_context+0x3d0>
 402580c:	a9025bf5 	stp	x21, x22, [sp,#32]
 4025810:	aa0103f5 	mov	x21, x1
 4025814:	f9414000 	ldr	x0, [x0,#640]
 4025818:	a90363f7 	stp	x23, x24, [sp,#48]
 402581c:	f9402401 	ldr	x1, [x0,#72]
 4025820:	f90023f9 	str	x25, [sp,#64]
 4025824:	aa0203f9 	mov	x25, x2
 4025828:	b50000e1 	cbnz	x1, 4025844 <psci_validate_entry_point+0x4c>
 402582c:	d53e1117 	mrs	x23, scr_el3
 4025830:	d5381000 	mrs	x0, sctlr_el1
 4025834:	927802f8 	and	x24, x23, #0x100
 4025838:	36400117 	tbz	w23, #8, 4025858 <psci_validate_entry_point+0x60>
 402583c:	d53c1000 	mrs	x0, sctlr_el2
 4025840:	14000006 	b	4025858 <psci_validate_entry_point+0x60>
 4025844:	aa1503e0 	mov	x0, x21
 4025848:	d63f0020 	blr	x1
 402584c:	34ffff00 	cbz	w0, 402582c <psci_validate_entry_point+0x34>
 4025850:	12800100 	mov	w0, #0xfffffff7            	// #-9
 4025854:	14000024 	b	40258e4 <psci_validate_entry_point+0xec>
 4025858:	92670001 	and	x1, x0, #0x2000000
 402585c:	d3596414 	ubfx	x20, x0, #25, #1
 4025860:	eb1f003f 	cmp	x1, xzr
 4025864:	52800020 	mov	w0, #0x1                   	// #1
 4025868:	d2800076 	mov	x22, #0x3                   	// #3
 402586c:	39000260 	strb	w0, [x19]
 4025870:	9a9f16c1 	csinc	x1, x22, xzr, ne
 4025874:	39000660 	strb	w0, [x19,#1]
 4025878:	52800b00 	mov	w0, #0x58                  	// #88
 402587c:	b9000661 	str	w1, [x19,#4]
 4025880:	79000660 	strh	w0, [x19,#2]
 4025884:	d2800802 	mov	x2, #0x40                  	// #64
 4025888:	91006260 	add	x0, x19, #0x18
 402588c:	f9000675 	str	x21, [x19,#8]
 4025890:	52800001 	mov	w1, #0x0                   	// #0
 4025894:	9400040b 	bl	40268c0 <memset>
 4025898:	f9000e79 	str	x25, [x19,#24]
 402589c:	36500117 	tbz	w23, #10, 40258bc <psci_validate_entry_point+0xc4>
 40258a0:	3707fd95 	tbnz	w21, #0, 4025850 <psci_validate_entry_point+0x58>
 40258a4:	eb1f031f 	cmp	x24, xzr
 40258a8:	52800040 	mov	w0, #0x2                   	// #2
 40258ac:	1a9f1400 	csinc	w0, w0, wzr, ne
 40258b0:	52807821 	mov	w1, #0x3c1                 	// #961
 40258b4:	2a000820 	orr	w0, w1, w0, lsl #2
 40258b8:	14000009 	b	40258dc <psci_validate_entry_point+0xe4>
 40258bc:	eb1f031f 	cmp	x24, xzr
 40258c0:	52800140 	mov	w0, #0xa                   	// #10
 40258c4:	1a8002c0 	csel	w0, w22, w0, eq
 40258c8:	531b02b5 	ubfiz	w21, w21, #5, #1
 40258cc:	52803a01 	mov	w1, #0x1d0                 	// #464
 40258d0:	2a142400 	orr	w0, w0, w20, lsl #9
 40258d4:	2a0102b5 	orr	w21, w21, w1
 40258d8:	2a0002a0 	orr	w0, w21, w0
 40258dc:	b9001260 	str	w0, [x19,#16]
 40258e0:	52800000 	mov	w0, #0x0                   	// #0
 40258e4:	a94153f3 	ldp	x19, x20, [sp,#16]
 40258e8:	a9425bf5 	ldp	x21, x22, [sp,#32]
 40258ec:	a94363f7 	ldp	x23, x24, [sp,#48]
 40258f0:	f94023f9 	ldr	x25, [sp,#64]
 40258f4:	a8c57bfd 	ldp	x29, x30, [sp],#80
 40258f8:	d65f03c0 	ret

00000000040258fc <psci_power_up_finish>:
 40258fc:	a9bb7bfd 	stp	x29, x30, [sp,#-80]!
 4025900:	910003fd 	mov	x29, sp
 4025904:	a9025bf5 	stp	x21, x22, [sp,#32]
 4025908:	a90153f3 	stp	x19, x20, [sp,#16]
 402590c:	f9001bf7 	str	x23, [sp,#48]
 4025910:	940006f3 	bl	40274dc <plat_my_core_pos>
 4025914:	790093bf 	strh	wzr, [x29,#72]
 4025918:	2a0003f6 	mov	w22, w0
 402591c:	d53ed040 	mrs	x0, tpidr_el3
 4025920:	b9405800 	ldr	w0, [x0,#88]
 4025924:	7100041f 	cmp	w0, #0x1
 4025928:	540000a1 	b.ne	402593c <psci_power_up_finish+0x40>
 402592c:	f0000000 	adrp	x0, 4028000 <__func__.2394+0x40>
 4025930:	9117fc00 	add	x0, x0, #0x5ff
 4025934:	9400033b 	bl	4026620 <tf_printf>
 4025938:	94000630 	bl	40271f8 <do_panic>
 402593c:	d53ed040 	mrs	x0, tpidr_el3
 4025940:	39417014 	ldrb	w20, [x0,#92]
 4025944:	2a1603e1 	mov	w1, w22
 4025948:	71000a9f 	cmp	w20, #0x2
 402594c:	1a9f1694 	csinc	w20, w20, wzr, ne
 4025950:	2a1403e0 	mov	w0, w20
 4025954:	97ffff65 	bl	40256e8 <psci_acquire_pwr_domain_locks>
 4025958:	d53ed040 	mrs	x0, tpidr_el3
 402595c:	39417400 	ldrb	w0, [x0,#93]
 4025960:	d0000037 	adrp	x23, 402b000 <psci_ns_context+0x3d0>
 4025964:	390123a0 	strb	w0, [x29,#72]
 4025968:	52800035 	mov	w21, #0x1                   	// #1
 402596c:	910982f7 	add	x23, x23, #0x260
 4025970:	940006db 	bl	40274dc <plat_my_core_pos>
 4025974:	d37c7c00 	ubfiz	x0, x0, #4, #32
 4025978:	d0000021 	adrp	x1, 402b000 <psci_ns_context+0x3d0>
 402597c:	91090021 	add	x1, x1, #0x240
 4025980:	8b000020 	add	x0, x1, x0
 4025984:	b9400813 	ldr	w19, [x0,#8]
 4025988:	6b1402bf 	cmp	w21, w20
 402598c:	540001a8 	b.hi	40259c0 <psci_power_up_finish+0xc4>
 4025990:	d37c7e73 	ubfiz	x19, x19, #4, #32
 4025994:	d2800201 	mov	x1, #0x10                  	// #16
 4025998:	8b170273 	add	x19, x19, x23
 402599c:	aa1303e0 	mov	x0, x19
 40259a0:	94000625 	bl	4027234 <flush_dcache_range>
 40259a4:	d13ec3a0 	sub	x0, x29, #0xfb0
 40259a8:	39403261 	ldrb	w1, [x19,#12]
 40259ac:	8b354000 	add	x0, x0, w21, uxtw
 40259b0:	b9400a73 	ldr	w19, [x19,#8]
 40259b4:	110006b5 	add	w21, w21, #0x1
 40259b8:	393fe001 	strb	w1, [x0,#4088]
 40259bc:	17fffff3 	b	4025988 <psci_power_up_finish+0x8c>
 40259c0:	710006bf 	cmp	w21, #0x1
 40259c4:	54000041 	b.ne	40259cc <psci_power_up_finish+0xd0>
 40259c8:	390127bf 	strb	wzr, [x29,#73]
 40259cc:	d53ed040 	mrs	x0, tpidr_el3
 40259d0:	b9405800 	ldr	w0, [x0,#88]
 40259d4:	910123a1 	add	x1, x29, #0x48
 40259d8:	7100081f 	cmp	w0, #0x2
 40259dc:	2a1603e0 	mov	w0, w22
 40259e0:	54000061 	b.ne	40259ec <psci_power_up_finish+0xf0>
 40259e4:	97fffd67 	bl	4024f80 <psci_cpu_on_finish>
 40259e8:	14000002 	b	40259f0 <psci_power_up_finish+0xf4>
 40259ec:	97fffdf4 	bl	40251bc <psci_cpu_suspend_finish>
 40259f0:	2a1403e0 	mov	w0, w20
 40259f4:	97fffe89 	bl	4025418 <psci_set_pwr_domains_to_run>
 40259f8:	2a1603e1 	mov	w1, w22
 40259fc:	2a1403e0 	mov	w0, w20
 4025a00:	97ffff59 	bl	4025764 <psci_release_pwr_domain_locks>
 4025a04:	f9401bf7 	ldr	x23, [sp,#48]
 4025a08:	a94153f3 	ldp	x19, x20, [sp,#16]
 4025a0c:	a9425bf5 	ldp	x21, x22, [sp,#32]
 4025a10:	a8c57bfd 	ldp	x29, x30, [sp],#80
 4025a14:	d65f03c0 	ret

0000000004025a18 <psci_spd_migrate_info>:
 4025a18:	d0000021 	adrp	x1, 402b000 <psci_ns_context+0x3d0>
 4025a1c:	f9414421 	ldr	x1, [x1,#648]
 4025a20:	b4000221 	cbz	x1, 4025a64 <psci_spd_migrate_info+0x4c>
 4025a24:	f9401821 	ldr	x1, [x1,#48]
 4025a28:	b40001e1 	cbz	x1, 4025a64 <psci_spd_migrate_info+0x4c>
 4025a2c:	a9bf7bfd 	stp	x29, x30, [sp,#-16]!
 4025a30:	910003fd 	mov	x29, sp
 4025a34:	d63f0020 	blr	x1
 4025a38:	11000401 	add	w1, w0, #0x1
 4025a3c:	71000c3f 	cmp	w1, #0x3
 4025a40:	54000169 	b.ls	4025a6c <psci_spd_migrate_info+0x54>
 4025a44:	f0000003 	adrp	x3, 4028000 <__func__.2394+0x40>
 4025a48:	f0000001 	adrp	x1, 4028000 <__func__.2394+0x40>
 4025a4c:	f0000000 	adrp	x0, 4028000 <__func__.2394+0x40>
 4025a50:	9118a863 	add	x3, x3, #0x62a
 4025a54:	528061e2 	mov	w2, #0x30f                 	// #783
 4025a58:	91157021 	add	x1, x1, #0x55c
 4025a5c:	911b8000 	add	x0, x0, #0x6e0
 4025a60:	94000391 	bl	40268a4 <__assert>
 4025a64:	12800000 	mov	w0, #0xffffffff            	// #-1
 4025a68:	d65f03c0 	ret
 4025a6c:	a8c17bfd 	ldp	x29, x30, [sp],#16
 4025a70:	d65f03c0 	ret

0000000004025a74 <psci_print_power_domain_map>:
 4025a74:	d65f03c0 	ret

0000000004025a78 <psci_cpu_on>:
 4025a78:	a9b77bfd 	stp	x29, x30, [sp,#-144]!
 4025a7c:	910003fd 	mov	x29, sp
 4025a80:	a90153f3 	stp	x19, x20, [sp,#16]
 4025a84:	f90013f5 	str	x21, [sp,#32]
 4025a88:	aa0003f3 	mov	x19, x0
 4025a8c:	aa0103f4 	mov	x20, x1
 4025a90:	aa0203f5 	mov	x21, x2
 4025a94:	97ffff51 	bl	40257d8 <psci_validate_mpidr>
 4025a98:	35000160 	cbnz	w0, 4025ac4 <psci_cpu_on+0x4c>
 4025a9c:	aa1503e2 	mov	x2, x21
 4025aa0:	aa1403e1 	mov	x1, x20
 4025aa4:	9100e3a0 	add	x0, x29, #0x38
 4025aa8:	97ffff54 	bl	40257f8 <psci_validate_entry_point>
 4025aac:	350000e0 	cbnz	w0, 4025ac8 <psci_cpu_on+0x50>
 4025ab0:	52800022 	mov	w2, #0x1                   	// #1
 4025ab4:	9100e3a1 	add	x1, x29, #0x38
 4025ab8:	aa1303e0 	mov	x0, x19
 4025abc:	97fffcd9 	bl	4024e20 <psci_cpu_on_start>
 4025ac0:	14000002 	b	4025ac8 <psci_cpu_on+0x50>
 4025ac4:	12800020 	mov	w0, #0xfffffffe            	// #-2
 4025ac8:	a94153f3 	ldp	x19, x20, [sp,#16]
 4025acc:	f94013f5 	ldr	x21, [sp,#32]
 4025ad0:	a8c97bfd 	ldp	x29, x30, [sp],#144
 4025ad4:	d65f03c0 	ret

0000000004025ad8 <psci_cpu_suspend>:
 4025ad8:	a9b67bfd 	stp	x29, x30, [sp,#-160]!
 4025adc:	910003fd 	mov	x29, sp
 4025ae0:	a90153f3 	stp	x19, x20, [sp,#16]
 4025ae4:	910283b4 	add	x20, x29, #0xa0
 4025ae8:	2a0003f3 	mov	w19, w0
 4025aec:	a90363f7 	stp	x23, x24, [sp,#48]
 4025af0:	aa0103f7 	mov	x23, x1
 4025af4:	aa0203f8 	mov	x24, x2
 4025af8:	781a0e9f 	strh	wzr, [x20,#-96]!
 4025afc:	a9025bf5 	stp	x21, x22, [sp,#32]
 4025b00:	aa1403e1 	mov	x1, x20
 4025b04:	97fffdea 	bl	40252ac <psci_validate_power_state>
 4025b08:	34000120 	cbz	w0, 4025b2c <psci_cpu_suspend+0x54>
 4025b0c:	3100081f 	cmn	w0, #0x2
 4025b10:	54000061 	b.ne	4025b1c <psci_cpu_suspend+0x44>
 4025b14:	12800035 	mov	w21, #0xfffffffe            	// #-2
 4025b18:	14000031 	b	4025bdc <psci_cpu_suspend+0x104>
 4025b1c:	f0000003 	adrp	x3, 4028000 <__func__.2394+0x40>
 4025b20:	52800b82 	mov	w2, #0x5c                  	// #92
 4025b24:	911e1463 	add	x3, x3, #0x785
 4025b28:	1400000a 	b	4025b50 <psci_cpu_suspend+0x78>
 4025b2c:	d3504273 	ubfx	x19, x19, #16, #1
 4025b30:	aa1403e0 	mov	x0, x20
 4025b34:	2a1303e1 	mov	w1, w19
 4025b38:	97fffec3 	bl	4025644 <psci_validate_suspend_req>
 4025b3c:	2a0003f5 	mov	w21, w0
 4025b40:	34000120 	cbz	w0, 4025b64 <psci_cpu_suspend+0x8c>
 4025b44:	f0000003 	adrp	x3, 4028000 <__func__.2394+0x40>
 4025b48:	52800ce2 	mov	w2, #0x67                  	// #103
 4025b4c:	911f0c63 	add	x3, x3, #0x7c3
 4025b50:	f0000001 	adrp	x1, 4028000 <__func__.2394+0x40>
 4025b54:	f0000000 	adrp	x0, 4028000 <__func__.2394+0x40>
 4025b58:	911e8421 	add	x1, x1, #0x7a1
 4025b5c:	911ce000 	add	x0, x0, #0x738
 4025b60:	94000351 	bl	40268a4 <__assert>
 4025b64:	aa1403e0 	mov	x0, x20
 4025b68:	97fffeae 	bl	4025620 <psci_find_target_suspend_lvl>
 4025b6c:	2a0003f6 	mov	w22, w0
 4025b70:	2a000260 	orr	w0, w19, w0
 4025b74:	350001a0 	cbnz	w0, 4025ba8 <psci_cpu_suspend+0xd0>
 4025b78:	d0000020 	adrp	x0, 402b000 <psci_ns_context+0x3d0>
 4025b7c:	f9414001 	ldr	x1, [x0,#640]
 4025b80:	f9400020 	ldr	x0, [x1]
 4025b84:	b4fffc80 	cbz	x0, 4025b14 <psci_cpu_suspend+0x3c>
 4025b88:	394103a0 	ldrb	w0, [x29,#64]
 4025b8c:	d53ed042 	mrs	x2, tpidr_el3
 4025b90:	39017440 	strb	w0, [x2,#93]
 4025b94:	f9400021 	ldr	x1, [x1]
 4025b98:	d63f0020 	blr	x1
 4025b9c:	d53ed040 	mrs	x0, tpidr_el3
 4025ba0:	3901741f 	strb	wzr, [x0,#93]
 4025ba4:	1400000e 	b	4025bdc <psci_cpu_suspend+0x104>
 4025ba8:	350000f3 	cbnz	w19, 4025bc4 <psci_cpu_suspend+0xec>
 4025bac:	2a1303e3 	mov	w3, w19
 4025bb0:	aa1403e2 	mov	x2, x20
 4025bb4:	2a1603e1 	mov	w1, w22
 4025bb8:	910123a0 	add	x0, x29, #0x48
 4025bbc:	97fffd25 	bl	4025050 <psci_cpu_suspend_start>
 4025bc0:	14000007 	b	4025bdc <psci_cpu_suspend+0x104>
 4025bc4:	aa1803e2 	mov	x2, x24
 4025bc8:	aa1703e1 	mov	x1, x23
 4025bcc:	910123a0 	add	x0, x29, #0x48
 4025bd0:	97ffff0a 	bl	40257f8 <psci_validate_entry_point>
 4025bd4:	34fffec0 	cbz	w0, 4025bac <psci_cpu_suspend+0xd4>
 4025bd8:	2a0003f5 	mov	w21, w0
 4025bdc:	2a1503e0 	mov	w0, w21
 4025be0:	a94153f3 	ldp	x19, x20, [sp,#16]
 4025be4:	a9425bf5 	ldp	x21, x22, [sp,#32]
 4025be8:	a94363f7 	ldp	x23, x24, [sp,#48]
 4025bec:	a8ca7bfd 	ldp	x29, x30, [sp],#160
 4025bf0:	d65f03c0 	ret

0000000004025bf4 <psci_system_suspend>:
 4025bf4:	a9b87bfd 	stp	x29, x30, [sp,#-128]!
 4025bf8:	910003fd 	mov	x29, sp
 4025bfc:	a90153f3 	stp	x19, x20, [sp,#16]
 4025c00:	aa0003f3 	mov	x19, x0
 4025c04:	aa0103f4 	mov	x20, x1
 4025c08:	97fffdcc 	bl	4025338 <psci_is_last_on_cpu>
 4025c0c:	34000580 	cbz	w0, 4025cbc <psci_system_suspend+0xc8>
 4025c10:	aa1303e1 	mov	x1, x19
 4025c14:	aa1403e2 	mov	x2, x20
 4025c18:	9100a3a0 	add	x0, x29, #0x28
 4025c1c:	97fffef7 	bl	40257f8 <psci_validate_entry_point>
 4025c20:	2a0003f3 	mov	w19, w0
 4025c24:	350004e0 	cbnz	w0, 4025cc0 <psci_system_suspend+0xcc>
 4025c28:	910083a0 	add	x0, x29, #0x20
 4025c2c:	97fffdb4 	bl	40252fc <psci_query_sys_suspend_pwrstate>
 4025c30:	910083a0 	add	x0, x29, #0x20
 4025c34:	97fffe7b 	bl	4025620 <psci_find_target_suspend_lvl>
 4025c38:	7100041f 	cmp	w0, #0x1
 4025c3c:	2a0003f4 	mov	w20, w0
 4025c40:	540000a0 	b.eq	4025c54 <psci_system_suspend+0x60>
 4025c44:	f0000003 	adrp	x3, 4028000 <__func__.2394+0x40>
 4025c48:	52801542 	mov	w2, #0xaa                  	// #170
 4025c4c:	91204463 	add	x3, x3, #0x811
 4025c50:	14000009 	b	4025c74 <psci_system_suspend+0x80>
 4025c54:	2a0003e1 	mov	w1, w0
 4025c58:	910083a0 	add	x0, x29, #0x20
 4025c5c:	97fffe7a 	bl	4025644 <psci_validate_suspend_req>
 4025c60:	2a0003f3 	mov	w19, w0
 4025c64:	34000120 	cbz	w0, 4025c88 <psci_system_suspend+0x94>
 4025c68:	f0000003 	adrp	x3, 4028000 <__func__.2394+0x40>
 4025c6c:	52801582 	mov	w2, #0xac                  	// #172
 4025c70:	91213c63 	add	x3, x3, #0x84f
 4025c74:	f0000001 	adrp	x1, 4028000 <__func__.2394+0x40>
 4025c78:	f0000000 	adrp	x0, 4028000 <__func__.2394+0x40>
 4025c7c:	911e8421 	add	x1, x1, #0x7a1
 4025c80:	911d4000 	add	x0, x0, #0x750
 4025c84:	94000308 	bl	40268a4 <__assert>
 4025c88:	394087a0 	ldrb	w0, [x29,#33]
 4025c8c:	7100081f 	cmp	w0, #0x2
 4025c90:	540000a0 	b.eq	4025ca4 <psci_system_suspend+0xb0>
 4025c94:	f0000003 	adrp	x3, 4028000 <__func__.2394+0x40>
 4025c98:	528015a2 	mov	w2, #0xad                  	// #173
 4025c9c:	91227c63 	add	x3, x3, #0x89f
 4025ca0:	17fffff5 	b	4025c74 <psci_system_suspend+0x80>
 4025ca4:	2a1403e3 	mov	w3, w20
 4025ca8:	910083a2 	add	x2, x29, #0x20
 4025cac:	2a1403e1 	mov	w1, w20
 4025cb0:	9100a3a0 	add	x0, x29, #0x28
 4025cb4:	97fffce7 	bl	4025050 <psci_cpu_suspend_start>
 4025cb8:	14000002 	b	4025cc0 <psci_system_suspend+0xcc>
 4025cbc:	12800053 	mov	w19, #0xfffffffd            	// #-3
 4025cc0:	2a1303e0 	mov	w0, w19
 4025cc4:	a94153f3 	ldp	x19, x20, [sp,#16]
 4025cc8:	a8c87bfd 	ldp	x29, x30, [sp],#128
 4025ccc:	d65f03c0 	ret

0000000004025cd0 <psci_cpu_off>:
 4025cd0:	a9bf7bfd 	stp	x29, x30, [sp,#-16]!
 4025cd4:	52800020 	mov	w0, #0x1                   	// #1
 4025cd8:	910003fd 	mov	x29, sp
 4025cdc:	97fffbff 	bl	4024cd8 <psci_do_cpu_off>
 4025ce0:	31000c1f 	cmn	w0, #0x3
 4025ce4:	54000120 	b.eq	4025d08 <psci_cpu_off+0x38>
 4025ce8:	f0000003 	adrp	x3, 4028000 <__func__.2394+0x40>
 4025cec:	f0000001 	adrp	x1, 4028000 <__func__.2394+0x40>
 4025cf0:	f0000000 	adrp	x0, 4028000 <__func__.2394+0x40>
 4025cf4:	91238463 	add	x3, x3, #0x8e1
 4025cf8:	52801982 	mov	w2, #0xcc                  	// #204
 4025cfc:	911e8421 	add	x1, x1, #0x7a1
 4025d00:	911da000 	add	x0, x0, #0x768
 4025d04:	940002e8 	bl	40268a4 <__assert>
 4025d08:	a8c17bfd 	ldp	x29, x30, [sp],#16
 4025d0c:	d65f03c0 	ret

0000000004025d10 <psci_affinity_info>:
 4025d10:	35000181 	cbnz	w1, 4025d40 <psci_affinity_info+0x30>
 4025d14:	a9bf7bfd 	stp	x29, x30, [sp,#-16]!
 4025d18:	910003fd 	mov	x29, sp
 4025d1c:	97fff521 	bl	40231a0 <plat_core_pos_by_mpidr>
 4025d20:	3100041f 	cmn	w0, #0x1
 4025d24:	54000061 	b.ne	4025d30 <psci_affinity_info+0x20>
 4025d28:	12800020 	mov	w0, #0xfffffffe            	// #-2
 4025d2c:	14000003 	b	4025d38 <psci_affinity_info+0x28>
 4025d30:	94000367 	bl	4026acc <_cpu_data_by_index>
 4025d34:	b9405800 	ldr	w0, [x0,#88]
 4025d38:	a8c17bfd 	ldp	x29, x30, [sp],#16
 4025d3c:	d65f03c0 	ret
 4025d40:	12800020 	mov	w0, #0xfffffffe            	// #-2
 4025d44:	d65f03c0 	ret

0000000004025d48 <psci_migrate>:
 4025d48:	a9bd7bfd 	stp	x29, x30, [sp,#-48]!
 4025d4c:	910003fd 	mov	x29, sp
 4025d50:	f9000bf3 	str	x19, [sp,#16]
 4025d54:	aa0003f3 	mov	x19, x0
 4025d58:	9100a3a0 	add	x0, x29, #0x28
 4025d5c:	97ffff2f 	bl	4025a18 <psci_spd_migrate_info>
 4025d60:	340000a0 	cbz	w0, 4025d74 <psci_migrate+0x2c>
 4025d64:	7100041f 	cmp	w0, #0x1
 4025d68:	12800040 	mov	w0, #0xfffffffd            	// #-3
 4025d6c:	5a9f0000 	csinv	w0, w0, wzr, eq
 4025d70:	14000023 	b	4025dfc <psci_migrate+0xb4>
 4025d74:	d53800a0 	mrs	x0, mpidr_el1
 4025d78:	f94017a1 	ldr	x1, [x29,#40]
 4025d7c:	eb00003f 	cmp	x1, x0
 4025d80:	54000381 	b.ne	4025df0 <psci_migrate+0xa8>
 4025d84:	aa1303e0 	mov	x0, x19
 4025d88:	97fffe94 	bl	40257d8 <psci_validate_mpidr>
 4025d8c:	35000360 	cbnz	w0, 4025df8 <psci_migrate+0xb0>
 4025d90:	d0000020 	adrp	x0, 402b000 <psci_ns_context+0x3d0>
 4025d94:	f9414400 	ldr	x0, [x0,#648]
 4025d98:	b4000060 	cbz	x0, 4025da4 <psci_migrate+0x5c>
 4025d9c:	f9401402 	ldr	x2, [x0,#40]
 4025da0:	b50000a2 	cbnz	x2, 4025db4 <psci_migrate+0x6c>
 4025da4:	f0000003 	adrp	x3, 4028000 <__func__.2394+0x40>
 4025da8:	52801f02 	mov	w2, #0xf8                  	// #248
 4025dac:	9123d463 	add	x3, x3, #0x8f5
 4025db0:	1400000b 	b	4025ddc <psci_migrate+0x94>
 4025db4:	d53800a0 	mrs	x0, mpidr_el1
 4025db8:	aa1303e1 	mov	x1, x19
 4025dbc:	d63f0040 	blr	x2
 4025dc0:	6b1f001f 	cmp	w0, wzr
 4025dc4:	3a461804 	ccmn	w0, #0x6, #0x4, ne
 4025dc8:	1a9f07e1 	cset	w1, ne
 4025dcc:	34000181 	cbz	w1, 4025dfc <psci_migrate+0xb4>
 4025dd0:	f0000003 	adrp	x3, 4028000 <__func__.2394+0x40>
 4025dd4:	52801f62 	mov	w2, #0xfb                  	// #251
 4025dd8:	910d4c63 	add	x3, x3, #0x353
 4025ddc:	f0000001 	adrp	x1, 4028000 <__func__.2394+0x40>
 4025de0:	f0000000 	adrp	x0, 4028000 <__func__.2394+0x40>
 4025de4:	911e8421 	add	x1, x1, #0x7a1
 4025de8:	911de000 	add	x0, x0, #0x778
 4025dec:	940002ae 	bl	40268a4 <__assert>
 4025df0:	128000c0 	mov	w0, #0xfffffff9            	// #-7
 4025df4:	14000002 	b	4025dfc <psci_migrate+0xb4>
 4025df8:	12800020 	mov	w0, #0xfffffffe            	// #-2
 4025dfc:	f9400bf3 	ldr	x19, [sp,#16]
 4025e00:	a8c37bfd 	ldp	x29, x30, [sp],#48
 4025e04:	d65f03c0 	ret

0000000004025e08 <psci_migrate_info_type>:
 4025e08:	a9be7bfd 	stp	x29, x30, [sp,#-32]!
 4025e0c:	910003fd 	mov	x29, sp
 4025e10:	910063a0 	add	x0, x29, #0x18
 4025e14:	97ffff01 	bl	4025a18 <psci_spd_migrate_info>
 4025e18:	a8c27bfd 	ldp	x29, x30, [sp],#32
 4025e1c:	d65f03c0 	ret

0000000004025e20 <psci_migrate_info_up_cpu>:
 4025e20:	a9be7bfd 	stp	x29, x30, [sp,#-32]!
 4025e24:	910003fd 	mov	x29, sp
 4025e28:	910063a0 	add	x0, x29, #0x18
 4025e2c:	97fffefb 	bl	4025a18 <psci_spd_migrate_info>
 4025e30:	7100041f 	cmp	w0, #0x1
 4025e34:	f9400fa1 	ldr	x1, [x29,#24]
 4025e38:	92800020 	mov	x0, #0xfffffffffffffffe    	// #-2
 4025e3c:	a8c27bfd 	ldp	x29, x30, [sp],#32
 4025e40:	9a809020 	csel	x0, x1, x0, ls
 4025e44:	d65f03c0 	ret

0000000004025e48 <psci_features>:
 4025e48:	2a0003e1 	mov	w1, w0
 4025e4c:	d0000020 	adrp	x0, 402b000 <psci_ns_context+0x3d0>
 4025e50:	b9429003 	ldr	w3, [x0,#656]
 4025e54:	36f00061 	tbz	w1, #30, 4025e60 <psci_features+0x18>
 4025e58:	52881740 	mov	w0, #0x40ba                	// #16570
 4025e5c:	0a000063 	and	w3, w3, w0
 4025e60:	d3587422 	ubfx	x2, x1, #24, #6
 4025e64:	12800000 	mov	w0, #0xffffffff            	// #-1
 4025e68:	7100105f 	cmp	w2, #0x4
 4025e6c:	54000141 	b.ne	4025e94 <psci_features+0x4c>
 4025e70:	d3505c22 	ubfx	x2, x1, #16, #8
 4025e74:	35000102 	cbnz	w2, 4025e94 <psci_features+0x4c>
 4025e78:	531f7c22 	lsr	w2, w1, #31
 4025e7c:	340000c2 	cbz	w2, 4025e94 <psci_features+0x4c>
 4025e80:	721b283f 	tst	w1, #0xffe0
 4025e84:	54000081 	b.ne	4025e94 <psci_features+0x4c>
 4025e88:	1ac12041 	lsl	w1, w2, w1
 4025e8c:	6a03003f 	tst	w1, w3
 4025e90:	5a9f13e0 	csetm	w0, eq
 4025e94:	d65f03c0 	ret

0000000004025e98 <psci_smc_handler>:
 4025e98:	a9be7bfd 	stp	x29, x30, [sp,#-32]!
 4025e9c:	910003fd 	mov	x29, sp
 4025ea0:	f9000bf3 	str	x19, [sp,#16]
 4025ea4:	aa0603f3 	mov	x19, x6
 4025ea8:	360008c7 	tbz	w7, #0, 4025fc0 <psci_smc_handler+0x128>
 4025eac:	d0000025 	adrp	x5, 402b000 <psci_ns_context+0x3d0>
 4025eb0:	2a0003e4 	mov	w4, w0
 4025eb4:	aa0103e0 	mov	x0, x1
 4025eb8:	aa0203e1 	mov	x1, x2
 4025ebc:	aa0303e2 	mov	x2, x3
 4025ec0:	52800023 	mov	w3, #0x1                   	// #1
 4025ec4:	b94290a5 	ldr	w5, [x5,#656]
 4025ec8:	1ac42063 	lsl	w3, w3, w4
 4025ecc:	6a05007f 	tst	w3, w5
 4025ed0:	54000780 	b.eq	4025fc0 <psci_smc_handler+0x128>
 4025ed4:	37f00484 	tbnz	w4, #30, 4025f64 <psci_smc_handler+0xcc>
 4025ed8:	52af8003 	mov	w3, #0x7c000000            	// #2080374784
 4025edc:	92407c05 	and	x5, x0, #0xffffffff
 4025ee0:	0b030083 	add	w3, w4, w3
 4025ee4:	92407c26 	and	x6, x1, #0xffffffff
 4025ee8:	7100387f 	cmp	w3, #0xe
 4025eec:	92407c42 	and	x2, x2, #0xffffffff
 4025ef0:	54000688 	b.hi	4025fc0 <psci_smc_handler+0x128>
 4025ef4:	f0000004 	adrp	x4, 4028000 <__func__.2394+0x40>
 4025ef8:	911c6084 	add	x4, x4, #0x718
 4025efc:	38634883 	ldrb	w3, [x4,w3,uxtw]
 4025f00:	10000064 	adr	x4, 4025f0c <psci_smc_handler+0x74>
 4025f04:	8b238883 	add	x3, x4, w3, sxtb #2
 4025f08:	d61f0060 	br	x3
 4025f0c:	d2a00020 	mov	x0, #0x10000               	// #65536
 4025f10:	1400002d 	b	4025fc4 <psci_smc_handler+0x12c>
 4025f14:	97ffff6f 	bl	4025cd0 <psci_cpu_off>
 4025f18:	14000028 	b	4025fb8 <psci_smc_handler+0x120>
 4025f1c:	aa0603e1 	mov	x1, x6
 4025f20:	1400001b 	b	4025f8c <psci_smc_handler+0xf4>
 4025f24:	aa0603e1 	mov	x1, x6
 4025f28:	aa0503e0 	mov	x0, x5
 4025f2c:	1400001a 	b	4025f94 <psci_smc_handler+0xfc>
 4025f30:	aa0503e0 	mov	x0, x5
 4025f34:	1400001a 	b	4025f9c <psci_smc_handler+0x104>
 4025f38:	aa0503e0 	mov	x0, x5
 4025f3c:	1400001a 	b	4025fa4 <psci_smc_handler+0x10c>
 4025f40:	97ffffb2 	bl	4025e08 <psci_migrate_info_type>
 4025f44:	1400001d 	b	4025fb8 <psci_smc_handler+0x120>
 4025f48:	aa0603e1 	mov	x1, x6
 4025f4c:	aa0503e0 	mov	x0, x5
 4025f50:	14000019 	b	4025fb4 <psci_smc_handler+0x11c>
 4025f54:	940000db 	bl	40262c0 <psci_system_off>
 4025f58:	940000f4 	bl	4026328 <psci_system_reset>
 4025f5c:	97ffffbb 	bl	4025e48 <psci_features>
 4025f60:	14000016 	b	4025fb8 <psci_smc_handler+0x120>
 4025f64:	12b88003 	mov	w3, #0x3bffffff            	// #1006632959
 4025f68:	0b030083 	add	w3, w4, w3
 4025f6c:	7100347f 	cmp	w3, #0xd
 4025f70:	54000288 	b.hi	4025fc0 <psci_smc_handler+0x128>
 4025f74:	f0000004 	adrp	x4, 4028000 <__func__.2394+0x40>
 4025f78:	911ca084 	add	x4, x4, #0x728
 4025f7c:	38634883 	ldrb	w3, [x4,w3,uxtw]
 4025f80:	10000064 	adr	x4, 4025f8c <psci_smc_handler+0xf4>
 4025f84:	8b238883 	add	x3, x4, w3, sxtb #2
 4025f88:	d61f0060 	br	x3
 4025f8c:	97fffed3 	bl	4025ad8 <psci_cpu_suspend>
 4025f90:	1400000a 	b	4025fb8 <psci_smc_handler+0x120>
 4025f94:	97fffeb9 	bl	4025a78 <psci_cpu_on>
 4025f98:	14000008 	b	4025fb8 <psci_smc_handler+0x120>
 4025f9c:	97ffff5d 	bl	4025d10 <psci_affinity_info>
 4025fa0:	14000006 	b	4025fb8 <psci_smc_handler+0x120>
 4025fa4:	97ffff69 	bl	4025d48 <psci_migrate>
 4025fa8:	14000004 	b	4025fb8 <psci_smc_handler+0x120>
 4025fac:	97ffff9d 	bl	4025e20 <psci_migrate_info_up_cpu>
 4025fb0:	14000005 	b	4025fc4 <psci_smc_handler+0x12c>
 4025fb4:	97ffff10 	bl	4025bf4 <psci_system_suspend>
 4025fb8:	93407c00 	sxtw	x0, w0
 4025fbc:	14000002 	b	4025fc4 <psci_smc_handler+0x12c>
 4025fc0:	b2407fe0 	mov	x0, #0xffffffff            	// #4294967295
 4025fc4:	f9000260 	str	x0, [x19]
 4025fc8:	aa1303e0 	mov	x0, x19
 4025fcc:	f9400bf3 	ldr	x19, [sp,#16]
 4025fd0:	a8c27bfd 	ldp	x29, x30, [sp],#32
 4025fd4:	d65f03c0 	ret

0000000004025fd8 <psci_setup>:
 4025fd8:	a9b77bfd 	stp	x29, x30, [sp,#-144]!
 4025fdc:	910003fd 	mov	x29, sp
 4025fe0:	a9025bf5 	stp	x21, x22, [sp,#32]
 4025fe4:	a9046bf9 	stp	x25, x26, [sp,#64]
 4025fe8:	52800035 	mov	w21, #0x1                   	// #1
 4025fec:	d0000036 	adrp	x22, 402b000 <psci_ns_context+0x3d0>
 4025ff0:	b0000039 	adrp	x25, 402a000 <__RO_END_UNALIGNED__>
 4025ff4:	910902d6 	add	x22, x22, #0x240
 4025ff8:	a90153f3 	stp	x19, x20, [sp,#16]
 4025ffc:	a90363f7 	stp	x23, x24, [sp,#48]
 4026000:	a90573fb 	stp	x27, x28, [sp,#80]
 4026004:	52800014 	mov	w20, #0x0                   	// #0
 4026008:	97fff96c 	bl	40245b8 <plat_get_power_domain_tree_desc>
 402600c:	52800013 	mov	w19, #0x0                   	// #0
 4026010:	aa0003e5 	mov	x5, x0
 4026014:	2a1503f8 	mov	w24, w21
 4026018:	9130c339 	add	x25, x25, #0xc30
 402601c:	0b1402a4 	add	w4, w21, w20
 4026020:	52800017 	mov	w23, #0x0                   	// #0
 4026024:	52800015 	mov	w21, #0x0                   	// #0
 4026028:	92800003 	mov	x3, #0xffffffffffffffff    	// #-1
 402602c:	6b04029f 	cmp	w20, w4
 4026030:	54000720 	b.eq	4026114 <psci_setup+0x13c>
 4026034:	71000e9f 	cmp	w20, #0x3
 4026038:	540000a1 	b.ne	402604c <psci_setup+0x74>
 402603c:	d0000003 	adrp	x3, 4028000 <__func__.2394+0x40>
 4026040:	52801402 	mov	w2, #0xa0                  	// #160
 4026044:	91252c63 	add	x3, x3, #0x94b
 4026048:	1400003b 	b	4026134 <psci_setup+0x15c>
 402604c:	387448ba 	ldrb	w26, [x5,w20,uxtw]
 4026050:	2a1703f3 	mov	w19, w23
 4026054:	5100069b 	sub	w27, w20, #0x1
 4026058:	0b170340 	add	w0, w26, w23
 402605c:	6b00027f 	cmp	w19, w0
 4026060:	54000522 	b.cs	4026104 <psci_setup+0x12c>
 4026064:	34000198 	cbz	w24, 4026094 <psci_setup+0xbc>
 4026068:	b0000021 	adrp	x1, 402b000 <psci_ns_context+0x3d0>
 402606c:	d37c7e60 	ubfiz	x0, x19, #4, #32
 4026070:	91098021 	add	x1, x1, #0x260
 4026074:	8b000020 	add	x0, x1, x0
 4026078:	52800021 	mov	w1, #0x1                   	// #1
 402607c:	39003813 	strb	w19, [x0,#14]
 4026080:	39003401 	strb	w1, [x0,#13]
 4026084:	52800041 	mov	w1, #0x2                   	// #2
 4026088:	b900081b 	str	w27, [x0,#8]
 402608c:	39003001 	strb	w1, [x0,#12]
 4026090:	1400001b 	b	40260fc <psci_setup+0x124>
 4026094:	2a1303fc 	mov	w28, w19
 4026098:	b9007ba4 	str	w4, [x29,#120]
 402609c:	d37cef80 	lsl	x0, x28, #4
 40260a0:	8b0002c1 	add	x1, x22, x0
 40260a4:	a9068fa5 	stp	x5, x3, [x29,#104]
 40260a8:	f8206ac3 	str	x3, [x22,x0]
 40260ac:	2a1303e0 	mov	w0, w19
 40260b0:	b900083b 	str	w27, [x1,#8]
 40260b4:	94000286 	bl	4026acc <_cpu_data_by_index>
 40260b8:	aa0003e1 	mov	x1, x0
 40260bc:	91016000 	add	x0, x0, #0x58
 40260c0:	52800022 	mov	w2, #0x1                   	// #1
 40260c4:	b9007fa2 	str	w2, [x29,#124]
 40260c8:	b9005822 	str	w2, [x1,#88]
 40260cc:	52800041 	mov	w1, #0x2                   	// #2
 40260d0:	39001001 	strb	w1, [x0,#4]
 40260d4:	39001401 	strb	w1, [x0,#5]
 40260d8:	d2800101 	mov	x1, #0x8                   	// #8
 40260dc:	94000456 	bl	4027234 <flush_dcache_range>
 40260e0:	d2804201 	mov	x1, #0x210                 	// #528
 40260e4:	b9407fa2 	ldr	w2, [x29,#124]
 40260e8:	2a1303e0 	mov	w0, w19
 40260ec:	9b016781 	madd	x1, x28, x1, x25
 40260f0:	97fffa22 	bl	4024978 <cm_set_context_by_index>
 40260f4:	b9407ba4 	ldr	w4, [x29,#120]
 40260f8:	a9468fa5 	ldp	x5, x3, [x29,#104]
 40260fc:	11000673 	add	w19, w19, #0x1
 4026100:	17ffffd6 	b	4026058 <psci_setup+0x80>
 4026104:	0b1a02b5 	add	w21, w21, w26
 4026108:	11000694 	add	w20, w20, #0x1
 402610c:	2a1303f7 	mov	w23, w19
 4026110:	17ffffc7 	b	402602c <psci_setup+0x54>
 4026114:	34000078 	cbz	w24, 4026120 <psci_setup+0x148>
 4026118:	52800018 	mov	w24, #0x0                   	// #0
 402611c:	17ffffc0 	b	402601c <psci_setup+0x44>
 4026120:	71000a7f 	cmp	w19, #0x2
 4026124:	54000120 	b.eq	4026148 <psci_setup+0x170>
 4026128:	d0000003 	adrp	x3, 4028000 <__func__.2394+0x40>
 402612c:	528016e2 	mov	w2, #0xb7                  	// #183
 4026130:	91268063 	add	x3, x3, #0x9a0
 4026134:	d0000001 	adrp	x1, 4028000 <__func__.2394+0x40>
 4026138:	d0000000 	adrp	x0, 4028000 <__func__.2394+0x40>
 402613c:	9125f421 	add	x1, x1, #0x97d
 4026140:	91248000 	add	x0, x0, #0x920
 4026144:	940001d8 	bl	40268a4 <__assert>
 4026148:	b0000034 	adrp	x20, 402b000 <psci_ns_context+0x3d0>
 402614c:	52800015 	mov	w21, #0x0                   	// #0
 4026150:	52800013 	mov	w19, #0x0                   	// #0
 4026154:	91098294 	add	x20, x20, #0x260
 4026158:	2a1303e0 	mov	w0, w19
 402615c:	910223a2 	add	x2, x29, #0x88
 4026160:	52800021 	mov	w1, #0x1                   	// #1
 4026164:	97fffc9b 	bl	40253d0 <psci_get_parent_pwr_domain_nodes>
 4026168:	b9408ba0 	ldr	w0, [x29,#136]
 402616c:	6b0002bf 	cmp	w21, w0
 4026170:	54000060 	b.eq	402617c <psci_setup+0x1a4>
 4026174:	d37c7c01 	ubfiz	x1, x0, #4, #32
 4026178:	b8216a93 	str	w19, [x20,x1]
 402617c:	d37c7c01 	ubfiz	x1, x0, #4, #32
 4026180:	11000673 	add	w19, w19, #0x1
 4026184:	8b010281 	add	x1, x20, x1
 4026188:	71000a7f 	cmp	w19, #0x2
 402618c:	2a0003f5 	mov	w21, w0
 4026190:	b9400422 	ldr	w2, [x1,#4]
 4026194:	11000442 	add	w2, w2, #0x1
 4026198:	b9000422 	str	w2, [x1,#4]
 402619c:	54fffde1 	b.ne	4026158 <psci_setup+0x180>
 40261a0:	940004cf 	bl	40274dc <plat_my_core_pos>
 40261a4:	d53800a2 	mrs	x2, mpidr_el1
 40261a8:	b2405fe1 	mov	x1, #0xffffff              	// #16777215
 40261ac:	d37c7c00 	ubfiz	x0, x0, #4, #32
 40261b0:	f2c01fe1 	movk	x1, #0xff, lsl #32
 40261b4:	b0000033 	adrp	x19, 402b000 <psci_ns_context+0x3d0>
 40261b8:	8a010042 	and	x2, x2, x1
 40261bc:	b0000021 	adrp	x1, 402b000 <psci_ns_context+0x3d0>
 40261c0:	91090021 	add	x1, x1, #0x240
 40261c4:	f8206822 	str	x2, [x1,x0]
 40261c8:	97fffc7d 	bl	40253bc <psci_init_req_local_pwr_states>
 40261cc:	52800020 	mov	w0, #0x1                   	// #1
 40261d0:	97fffc92 	bl	4025418 <psci_set_pwr_domains_to_run>
 40261d4:	b0000000 	adrp	x0, 4027000 <do_cpu_reg_dump+0x10>
 40261d8:	910a0261 	add	x1, x19, #0x280
 40261dc:	9101d000 	add	x0, x0, #0x74
 40261e0:	97fff8f1 	bl	40245a4 <plat_setup_psci_ops>
 40261e4:	f9414261 	ldr	x1, [x19,#640]
 40261e8:	b5000121 	cbnz	x1, 402620c <psci_setup+0x234>
 40261ec:	d0000003 	adrp	x3, 4028000 <__func__.2394+0x40>
 40261f0:	d0000001 	adrp	x1, 4028000 <__func__.2394+0x40>
 40261f4:	d0000000 	adrp	x0, 4028000 <__func__.2394+0x40>
 40261f8:	9126e463 	add	x3, x3, #0x9b9
 40261fc:	52801d42 	mov	w2, #0xea                  	// #234
 4026200:	9125f421 	add	x1, x1, #0x97d
 4026204:	91250000 	add	x0, x0, #0x940
 4026208:	17ffffcf 	b	4026144 <psci_setup+0x16c>
 402620c:	b0000020 	adrp	x0, 402b000 <psci_ns_context+0x3d0>
 4026210:	52808222 	mov	w2, #0x411                 	// #1041
 4026214:	b9029002 	str	w2, [x0,#656]
 4026218:	f9400822 	ldr	x2, [x1,#16]
 402621c:	b4000062 	cbz	x2, 4026228 <psci_setup+0x250>
 4026220:	528082a2 	mov	w2, #0x415                 	// #1045
 4026224:	b9029002 	str	w2, [x0,#656]
 4026228:	f9400422 	ldr	x2, [x1,#8]
 402622c:	b40000c2 	cbz	x2, 4026244 <psci_setup+0x26c>
 4026230:	f9401022 	ldr	x2, [x1,#32]
 4026234:	b4000082 	cbz	x2, 4026244 <psci_setup+0x26c>
 4026238:	b9429002 	ldr	w2, [x0,#656]
 402623c:	321d0042 	orr	w2, w2, #0x8
 4026240:	b9029002 	str	w2, [x0,#656]
 4026244:	f9400c22 	ldr	x2, [x1,#24]
 4026248:	b4000182 	cbz	x2, 4026278 <psci_setup+0x2a0>
 402624c:	f9401422 	ldr	x2, [x1,#40]
 4026250:	b4000142 	cbz	x2, 4026278 <psci_setup+0x2a0>
 4026254:	b9429003 	ldr	w3, [x0,#656]
 4026258:	321f0062 	orr	w2, w3, #0x2
 402625c:	b9029002 	str	w2, [x0,#656]
 4026260:	f9402822 	ldr	x2, [x1,#80]
 4026264:	b40000a2 	cbz	x2, 4026278 <psci_setup+0x2a0>
 4026268:	52880042 	mov	w2, #0x4002                	// #16386
 402626c:	2a020062 	orr	w2, w3, w2
 4026270:	b0000023 	adrp	x3, 402b000 <psci_ns_context+0x3d0>
 4026274:	b9029062 	str	w2, [x3,#656]
 4026278:	f9401822 	ldr	x2, [x1,#48]
 402627c:	b4000082 	cbz	x2, 402628c <psci_setup+0x2b4>
 4026280:	b9429002 	ldr	w2, [x0,#656]
 4026284:	32180042 	orr	w2, w2, #0x100
 4026288:	b9029002 	str	w2, [x0,#656]
 402628c:	f9401c21 	ldr	x1, [x1,#56]
 4026290:	b4000081 	cbz	x1, 40262a0 <psci_setup+0x2c8>
 4026294:	b9429001 	ldr	w1, [x0,#656]
 4026298:	32170021 	orr	w1, w1, #0x200
 402629c:	b9029001 	str	w1, [x0,#656]
 40262a0:	a94153f3 	ldp	x19, x20, [sp,#16]
 40262a4:	a9425bf5 	ldp	x21, x22, [sp,#32]
 40262a8:	a94363f7 	ldp	x23, x24, [sp,#48]
 40262ac:	a9446bf9 	ldp	x25, x26, [sp,#64]
 40262b0:	a94573fb 	ldp	x27, x28, [sp,#80]
 40262b4:	52800000 	mov	w0, #0x0                   	// #0
 40262b8:	a8c97bfd 	ldp	x29, x30, [sp],#144
 40262bc:	d65f03c0 	ret

00000000040262c0 <psci_system_off>:
 40262c0:	a9be7bfd 	stp	x29, x30, [sp,#-32]!
 40262c4:	910003fd 	mov	x29, sp
 40262c8:	f9000bf3 	str	x19, [sp,#16]
 40262cc:	97fffdea 	bl	4025a74 <psci_print_power_domain_map>
 40262d0:	b0000020 	adrp	x0, 402b000 <psci_ns_context+0x3d0>
 40262d4:	f9414001 	ldr	x1, [x0,#640]
 40262d8:	f9401821 	ldr	x1, [x1,#48]
 40262dc:	b5000121 	cbnz	x1, 4026300 <psci_system_off+0x40>
 40262e0:	d0000003 	adrp	x3, 4028000 <__func__.2394+0x40>
 40262e4:	d0000001 	adrp	x1, 4028000 <__func__.2394+0x40>
 40262e8:	d0000000 	adrp	x0, 4028000 <__func__.2394+0x40>
 40262ec:	9127c863 	add	x3, x3, #0x9f2
 40262f0:	52800542 	mov	w2, #0x2a                  	// #42
 40262f4:	91283c21 	add	x1, x1, #0xa0f
 40262f8:	91274000 	add	x0, x0, #0x9d0
 40262fc:	9400016a 	bl	40268a4 <__assert>
 4026300:	aa0003f3 	mov	x19, x0
 4026304:	b0000020 	adrp	x0, 402b000 <psci_ns_context+0x3d0>
 4026308:	f9414400 	ldr	x0, [x0,#648]
 402630c:	b4000080 	cbz	x0, 402631c <psci_system_off+0x5c>
 4026310:	f9401c00 	ldr	x0, [x0,#56]
 4026314:	b4000040 	cbz	x0, 402631c <psci_system_off+0x5c>
 4026318:	d63f0000 	blr	x0
 402631c:	f9414260 	ldr	x0, [x19,#640]
 4026320:	f9401800 	ldr	x0, [x0,#48]
 4026324:	d63f0000 	blr	x0

0000000004026328 <psci_system_reset>:
 4026328:	a9be7bfd 	stp	x29, x30, [sp,#-32]!
 402632c:	910003fd 	mov	x29, sp
 4026330:	f9000bf3 	str	x19, [sp,#16]
 4026334:	97fffdd0 	bl	4025a74 <psci_print_power_domain_map>
 4026338:	b0000020 	adrp	x0, 402b000 <psci_ns_context+0x3d0>
 402633c:	f9414001 	ldr	x1, [x0,#640]
 4026340:	f9401c21 	ldr	x1, [x1,#56]
 4026344:	b5000121 	cbnz	x1, 4026368 <psci_system_reset+0x40>
 4026348:	d0000003 	adrp	x3, 4028000 <__func__.2394+0x40>
 402634c:	d0000001 	adrp	x1, 4028000 <__func__.2394+0x40>
 4026350:	d0000000 	adrp	x0, 4028000 <__func__.2394+0x40>
 4026354:	9128dc63 	add	x3, x3, #0xa37
 4026358:	52800762 	mov	w2, #0x3b                  	// #59
 402635c:	91283c21 	add	x1, x1, #0xa0f
 4026360:	91278000 	add	x0, x0, #0x9e0
 4026364:	94000150 	bl	40268a4 <__assert>
 4026368:	aa0003f3 	mov	x19, x0
 402636c:	b0000020 	adrp	x0, 402b000 <psci_ns_context+0x3d0>
 4026370:	f9414400 	ldr	x0, [x0,#648]
 4026374:	b4000080 	cbz	x0, 4026384 <psci_system_reset+0x5c>
 4026378:	f9402000 	ldr	x0, [x0,#64]
 402637c:	b4000040 	cbz	x0, 4026384 <psci_system_reset+0x5c>
 4026380:	d63f0000 	blr	x0
 4026384:	f9414260 	ldr	x0, [x19,#640]
 4026388:	f9401c00 	ldr	x0, [x0,#56]
 402638c:	d63f0000 	blr	x0

0000000004026390 <bakery_lock_get>:
 4026390:	a9be7bfd 	stp	x29, x30, [sp,#-32]!
 4026394:	910003fd 	mov	x29, sp
 4026398:	f9000bf3 	str	x19, [sp,#16]
 402639c:	aa0003f3 	mov	x19, x0
 40263a0:	9400044f 	bl	40274dc <plat_my_core_pos>
 40263a4:	d53e1003 	mrs	x3, sctlr_el3
 40263a8:	d0fdfec5 	adrp	x5, 0 <CPU_MIDR>
 40263ac:	2a0003e2 	mov	w2, w0
 40263b0:	910100a5 	add	x5, x5, #0x40
 40263b4:	9b057c42 	mul	x2, x2, x5
 40263b8:	ab130046 	adds	x6, x2, x19
 40263bc:	540000a1 	b.ne	40263d0 <bakery_lock_get+0x40>
 40263c0:	d0000003 	adrp	x3, 4028000 <__func__.2394+0x40>
 40263c4:	52800d22 	mov	w2, #0x69                  	// #105
 40263c8:	912a0063 	add	x3, x3, #0xa80
 40263cc:	14000007 	b	40263e8 <bakery_lock_get+0x58>
 40263d0:	78736841 	ldrh	w1, [x2,x19]
 40263d4:	d3413c21 	ubfx	x1, x1, #1, #15
 40263d8:	34000121 	cbz	w1, 40263fc <bakery_lock_get+0x6c>
 40263dc:	d0000003 	adrp	x3, 4028000 <__func__.2394+0x40>
 40263e0:	52800e02 	mov	w2, #0x70                  	// #112
 40263e4:	912ad463 	add	x3, x3, #0xab5
 40263e8:	d0000001 	adrp	x1, 4028000 <__func__.2394+0x40>
 40263ec:	d0000000 	adrp	x0, 4028000 <__func__.2394+0x40>
 40263f0:	912a3c21 	add	x1, x1, #0xa8f
 40263f4:	91296000 	add	x0, x0, #0xa58
 40263f8:	9400012b 	bl	40268a4 <__assert>
 40263fc:	52800021 	mov	w1, #0x1                   	// #1
 4026400:	121e0063 	and	w3, w3, #0x4
 4026404:	78336841 	strh	w1, [x2,x19]
 4026408:	34000063 	cbz	w3, 4026414 <bakery_lock_get+0x84>
 402640c:	d50b7a26 	dc	cvac, x6
 4026410:	14000002 	b	4026418 <bakery_lock_get+0x88>
 4026414:	d5087626 	dc	ivac, x6
 4026418:	d5033b9f 	dsb	ish
 402641c:	52800001 	mov	w1, #0x0                   	// #0
 4026420:	aa1303e4 	mov	x4, x19
 4026424:	52800007 	mov	w7, #0x0                   	// #0
 4026428:	6b07001f 	cmp	w0, w7
 402642c:	54000180 	b.eq	402645c <bakery_lock_get+0xcc>
 4026430:	b50000a4 	cbnz	x4, 4026444 <bakery_lock_get+0xb4>
 4026434:	d0000003 	adrp	x3, 4028000 <__func__.2394+0x40>
 4026438:	52801102 	mov	w2, #0x88                  	// #136
 402643c:	912b9863 	add	x3, x3, #0xae6
 4026440:	17ffffea 	b	40263e8 <bakery_lock_get+0x58>
 4026444:	34000043 	cbz	w3, 402644c <bakery_lock_get+0xbc>
 4026448:	d50b7e24 	dc	civac, x4
 402644c:	79400088 	ldrh	w8, [x4]
 4026450:	d3413d08 	ubfx	x8, x8, #1, #15
 4026454:	6b08003f 	cmp	w1, w8
 4026458:	1a882021 	csel	w1, w1, w8, cs
 402645c:	110004e7 	add	w7, w7, #0x1
 4026460:	8b050084 	add	x4, x4, x5
 4026464:	710008ff 	cmp	w7, #0x2
 4026468:	54fffe01 	b.ne	4026428 <bakery_lock_get+0x98>
 402646c:	11000421 	add	w1, w1, #0x1
 4026470:	531f3824 	ubfiz	w4, w1, #1, #15
 4026474:	78336844 	strh	w4, [x2,x19]
 4026478:	34000063 	cbz	w3, 4026484 <bakery_lock_get+0xf4>
 402647c:	d50b7a26 	dc	cvac, x6
 4026480:	14000002 	b	4026488 <bakery_lock_get+0xf8>
 4026484:	d5087626 	dc	ivac, x6
 4026488:	d5033b9f 	dsb	ish
 402648c:	52800004 	mov	w4, #0x0                   	// #0
 4026490:	2a012001 	orr	w1, w0, w1, lsl #8
 4026494:	6b04001f 	cmp	w0, w4
 4026498:	54000380 	b.eq	4026508 <bakery_lock_get+0x178>
 402649c:	b5000193 	cbnz	x19, 40264cc <bakery_lock_get+0x13c>
 40264a0:	d0000003 	adrp	x3, 4028000 <__func__.2394+0x40>
 40264a4:	d0000001 	adrp	x1, 4028000 <__func__.2394+0x40>
 40264a8:	d0000000 	adrp	x0, 4028000 <__func__.2394+0x40>
 40264ac:	912b9863 	add	x3, x3, #0xae6
 40264b0:	528017a2 	mov	w2, #0xbd                  	// #189
 40264b4:	912a3c21 	add	x1, x1, #0xa8f
 40264b8:	9129c000 	add	x0, x0, #0xa70
 40264bc:	17ffffcf 	b	40263f8 <bakery_lock_get+0x68>
 40264c0:	79400262 	ldrh	w2, [x19]
 40264c4:	53003c42 	uxth	w2, w2
 40264c8:	36000082 	tbz	w2, #0, 40264d8 <bakery_lock_get+0x148>
 40264cc:	34ffffa3 	cbz	w3, 40264c0 <bakery_lock_get+0x130>
 40264d0:	d50b7e33 	dc	civac, x19
 40264d4:	17fffffb 	b	40264c0 <bakery_lock_get+0x130>
 40264d8:	53017c42 	lsr	w2, w2, #1
 40264dc:	34000162 	cbz	w2, 4026508 <bakery_lock_get+0x178>
 40264e0:	2a022086 	orr	w6, w4, w2, lsl #8
 40264e4:	6b06003f 	cmp	w1, w6
 40264e8:	54000109 	b.ls	4026508 <bakery_lock_get+0x178>
 40264ec:	d503205f 	wfe
 40264f0:	34000043 	cbz	w3, 40264f8 <bakery_lock_get+0x168>
 40264f4:	d50b7e33 	dc	civac, x19
 40264f8:	79400266 	ldrh	w6, [x19]
 40264fc:	d3413cc6 	ubfx	x6, x6, #1, #15
 4026500:	6b06005f 	cmp	w2, w6
 4026504:	54ffff40 	b.eq	40264ec <bakery_lock_get+0x15c>
 4026508:	11000484 	add	w4, w4, #0x1
 402650c:	8b050273 	add	x19, x19, x5
 4026510:	7100089f 	cmp	w4, #0x2
 4026514:	54fffc01 	b.ne	4026494 <bakery_lock_get+0x104>
 4026518:	f9400bf3 	ldr	x19, [sp,#16]
 402651c:	a8c27bfd 	ldp	x29, x30, [sp],#32
 4026520:	d65f03c0 	ret

0000000004026524 <bakery_lock_release>:
 4026524:	a9be7bfd 	stp	x29, x30, [sp,#-32]!
 4026528:	910003fd 	mov	x29, sp
 402652c:	a90153f3 	stp	x19, x20, [sp,#16]
 4026530:	aa0003f4 	mov	x20, x0
 4026534:	d53e1013 	mrs	x19, sctlr_el3
 4026538:	940003e9 	bl	40274dc <plat_my_core_pos>
 402653c:	2a0003e0 	mov	w0, w0
 4026540:	d0fdfec1 	adrp	x1, 0 <CPU_MIDR>
 4026544:	91010021 	add	x1, x1, #0x40
 4026548:	9b017c00 	mul	x0, x0, x1
 402654c:	8b000282 	add	x2, x20, x0
 4026550:	78606a81 	ldrh	w1, [x20,x0]
 4026554:	d3413c21 	ubfx	x1, x1, #1, #15
 4026558:	35000121 	cbnz	w1, 402657c <bakery_lock_release+0x58>
 402655c:	d0000003 	adrp	x3, 4028000 <__func__.2394+0x40>
 4026560:	d0000001 	adrp	x1, 4028000 <__func__.2394+0x40>
 4026564:	d0000000 	adrp	x0, 4028000 <__func__.2394+0x40>
 4026568:	912ad863 	add	x3, x3, #0xab6
 402656c:	52801c22 	mov	w2, #0xe1                  	// #225
 4026570:	912a3c21 	add	x1, x1, #0xa8f
 4026574:	912be000 	add	x0, x0, #0xaf8
 4026578:	940000cb 	bl	40268a4 <__assert>
 402657c:	121e0273 	and	w19, w19, #0x4
 4026580:	78206a9f 	strh	wzr, [x20,x0]
 4026584:	34000073 	cbz	w19, 4026590 <bakery_lock_release+0x6c>
 4026588:	d50b7a22 	dc	cvac, x2
 402658c:	14000002 	b	4026594 <bakery_lock_release+0x70>
 4026590:	d5087622 	dc	ivac, x2
 4026594:	d5033b9f 	dsb	ish
 4026598:	d503209f 	sev
 402659c:	a94153f3 	ldp	x19, x20, [sp,#16]
 40265a0:	a8c27bfd 	ldp	x29, x30, [sp],#32
 40265a4:	d65f03c0 	ret

00000000040265a8 <print_entry_point_info>:
 40265a8:	d65f03c0 	ret

00000000040265ac <unsigned_num_print>:
 40265ac:	a9bc7bfd 	stp	x29, x30, [sp,#-64]!
 40265b0:	d2800003 	mov	x3, #0x0                   	// #0
 40265b4:	910003fd 	mov	x29, sp
 40265b8:	f9000bf3 	str	x19, [sp,#16]
 40265bc:	2a0103e2 	mov	w2, w1
 40265c0:	11000473 	add	w19, w3, #0x1
 40265c4:	9ac20804 	udiv	x4, x0, x2
 40265c8:	9b028080 	msub	x0, x4, x2, x0
 40265cc:	9100a3a2 	add	x2, x29, #0x28
 40265d0:	7100241f 	cmp	w0, #0x9
 40265d4:	5400006c 	b.gt	40265e0 <unsigned_num_print+0x34>
 40265d8:	1100c000 	add	w0, w0, #0x30
 40265dc:	14000002 	b	40265e4 <unsigned_num_print+0x38>
 40265e0:	11015c00 	add	w0, w0, #0x57
 40265e4:	38236840 	strb	w0, [x2,x3]
 40265e8:	aa0403e0 	mov	x0, x4
 40265ec:	91000463 	add	x3, x3, #0x1
 40265f0:	b5fffe64 	cbnz	x4, 40265bc <unsigned_num_print+0x10>
 40265f4:	51000673 	sub	w19, w19, #0x1
 40265f8:	3100067f 	cmn	w19, #0x1
 40265fc:	540000c0 	b.eq	4026614 <unsigned_num_print+0x68>
 4026600:	d13f03a0 	sub	x0, x29, #0xfc0
 4026604:	8b33c000 	add	x0, x0, w19, sxtw
 4026608:	397fa000 	ldrb	w0, [x0,#4072]
 402660c:	940000bc 	bl	40268fc <putchar>
 4026610:	17fffff9 	b	40265f4 <unsigned_num_print+0x48>
 4026614:	f9400bf3 	ldr	x19, [sp,#16]
 4026618:	a8c47bfd 	ldp	x29, x30, [sp],#64
 402661c:	d65f03c0 	ret

0000000004026620 <tf_printf>:
 4026620:	a9b87bfd 	stp	x29, x30, [sp,#-128]!
 4026624:	910003fd 	mov	x29, sp
 4026628:	a90153f3 	stp	x19, x20, [sp,#16]
 402662c:	aa0003f3 	mov	x19, x0
 4026630:	910203a0 	add	x0, x29, #0x80
 4026634:	a90203a0 	stp	x0, x0, [x29,#32]
 4026638:	910103a0 	add	x0, x29, #0x40
 402663c:	b9003fbf 	str	wzr, [x29,#60]
 4026640:	f9001ba0 	str	x0, [x29,#48]
 4026644:	128006e0 	mov	w0, #0xffffffc8            	// #-56
 4026648:	a9048ba1 	stp	x1, x2, [x29,#72]
 402664c:	a90593a3 	stp	x3, x4, [x29,#88]
 4026650:	a9069ba5 	stp	x5, x6, [x29,#104]
 4026654:	f9003fa7 	str	x7, [x29,#120]
 4026658:	b9003ba0 	str	w0, [x29,#56]
 402665c:	39400260 	ldrb	w0, [x19]
 4026660:	340011c0 	cbz	w0, 4026898 <tf_printf+0x278>
 4026664:	7100941f 	cmp	w0, #0x25
 4026668:	91000673 	add	x19, x19, #0x1
 402666c:	54001121 	b.ne	4026890 <tf_printf+0x270>
 4026670:	52800004 	mov	w4, #0x0                   	// #0
 4026674:	39400260 	ldrb	w0, [x19]
 4026678:	7101b01f 	cmp	w0, #0x6c
 402667c:	54000c40 	b.eq	4026804 <tf_printf+0x1e4>
 4026680:	540000c8 	b.hi	4026698 <tf_printf+0x78>
 4026684:	7101901f 	cmp	w0, #0x64
 4026688:	54000160 	b.eq	40266b4 <tf_printf+0x94>
 402668c:	7101a41f 	cmp	w0, #0x69
 4026690:	54000120 	b.eq	40266b4 <tf_printf+0x94>
 4026694:	14000081 	b	4026898 <tf_printf+0x278>
 4026698:	7101d41f 	cmp	w0, #0x75
 402669c:	54000ba0 	b.eq	4026810 <tf_printf+0x1f0>
 40266a0:	7101e01f 	cmp	w0, #0x78
 40266a4:	54000740 	b.eq	402678c <tf_printf+0x16c>
 40266a8:	7101cc1f 	cmp	w0, #0x73
 40266ac:	54000f61 	b.ne	4026898 <tf_printf+0x278>
 40266b0:	14000024 	b	4026740 <tf_printf+0x120>
 40266b4:	b9403ba2 	ldr	w2, [x29,#56]
 40266b8:	f94013a0 	ldr	x0, [x29,#32]
 40266bc:	340001c4 	cbz	w4, 40266f4 <tf_printf+0xd4>
 40266c0:	36f800a2 	tbz	w2, #31, 40266d4 <tf_printf+0xb4>
 40266c4:	11002041 	add	w1, w2, #0x8
 40266c8:	b9003ba1 	str	w1, [x29,#56]
 40266cc:	6b1f003f 	cmp	w1, wzr
 40266d0:	540000ad 	b.le	40266e4 <tf_printf+0xc4>
 40266d4:	91003c01 	add	x1, x0, #0xf
 40266d8:	927df021 	and	x1, x1, #0xfffffffffffffff8
 40266dc:	f90013a1 	str	x1, [x29,#32]
 40266e0:	14000003 	b	40266ec <tf_printf+0xcc>
 40266e4:	f94017a1 	ldr	x1, [x29,#40]
 40266e8:	8b22c020 	add	x0, x1, w2, sxtw
 40266ec:	f9400014 	ldr	x20, [x0]
 40266f0:	1400000d 	b	4026724 <tf_printf+0x104>
 40266f4:	36f800a2 	tbz	w2, #31, 4026708 <tf_printf+0xe8>
 40266f8:	11002041 	add	w1, w2, #0x8
 40266fc:	b9003ba1 	str	w1, [x29,#56]
 4026700:	6b1f003f 	cmp	w1, wzr
 4026704:	540000ad 	b.le	4026718 <tf_printf+0xf8>
 4026708:	91002c01 	add	x1, x0, #0xb
 402670c:	927df021 	and	x1, x1, #0xfffffffffffffff8
 4026710:	f90013a1 	str	x1, [x29,#32]
 4026714:	14000003 	b	4026720 <tf_printf+0x100>
 4026718:	f94017a1 	ldr	x1, [x29,#40]
 402671c:	8b22c020 	add	x0, x1, w2, sxtw
 4026720:	b9800014 	ldrsw	x20, [x0]
 4026724:	b6f80094 	tbz	x20, #63, 4026734 <tf_printf+0x114>
 4026728:	528005a0 	mov	w0, #0x2d                  	// #45
 402672c:	cb1403f4 	neg	x20, x20
 4026730:	94000073 	bl	40268fc <putchar>
 4026734:	52800141 	mov	w1, #0xa                   	// #10
 4026738:	aa1403e0 	mov	x0, x20
 402673c:	14000052 	b	4026884 <tf_printf+0x264>
 4026740:	b9403ba1 	ldr	w1, [x29,#56]
 4026744:	f94013a0 	ldr	x0, [x29,#32]
 4026748:	36f800a1 	tbz	w1, #31, 402675c <tf_printf+0x13c>
 402674c:	11002022 	add	w2, w1, #0x8
 4026750:	b9003ba2 	str	w2, [x29,#56]
 4026754:	6b1f005f 	cmp	w2, wzr
 4026758:	540000ad 	b.le	402676c <tf_printf+0x14c>
 402675c:	91003c01 	add	x1, x0, #0xf
 4026760:	927df021 	and	x1, x1, #0xfffffffffffffff8
 4026764:	f90013a1 	str	x1, [x29,#32]
 4026768:	14000003 	b	4026774 <tf_printf+0x154>
 402676c:	f94017a0 	ldr	x0, [x29,#40]
 4026770:	8b21c000 	add	x0, x0, w1, sxtw
 4026774:	f9400014 	ldr	x20, [x0]
 4026778:	39400280 	ldrb	w0, [x20]
 402677c:	34000860 	cbz	w0, 4026888 <tf_printf+0x268>
 4026780:	91000694 	add	x20, x20, #0x1
 4026784:	9400005e 	bl	40268fc <putchar>
 4026788:	17fffffc 	b	4026778 <tf_printf+0x158>
 402678c:	b9403ba3 	ldr	w3, [x29,#56]
 4026790:	f94013a1 	ldr	x1, [x29,#32]
 4026794:	340001c4 	cbz	w4, 40267cc <tf_printf+0x1ac>
 4026798:	36f800a3 	tbz	w3, #31, 40267ac <tf_printf+0x18c>
 402679c:	11002060 	add	w0, w3, #0x8
 40267a0:	b9003ba0 	str	w0, [x29,#56]
 40267a4:	6b1f001f 	cmp	w0, wzr
 40267a8:	540000ad 	b.le	40267bc <tf_printf+0x19c>
 40267ac:	91003c20 	add	x0, x1, #0xf
 40267b0:	927df000 	and	x0, x0, #0xfffffffffffffff8
 40267b4:	f90013a0 	str	x0, [x29,#32]
 40267b8:	14000003 	b	40267c4 <tf_printf+0x1a4>
 40267bc:	f94017a0 	ldr	x0, [x29,#40]
 40267c0:	8b23c001 	add	x1, x0, w3, sxtw
 40267c4:	f9400020 	ldr	x0, [x1]
 40267c8:	1400000d 	b	40267fc <tf_printf+0x1dc>
 40267cc:	36f800a3 	tbz	w3, #31, 40267e0 <tf_printf+0x1c0>
 40267d0:	11002060 	add	w0, w3, #0x8
 40267d4:	b9003ba0 	str	w0, [x29,#56]
 40267d8:	6b1f001f 	cmp	w0, wzr
 40267dc:	540000ad 	b.le	40267f0 <tf_printf+0x1d0>
 40267e0:	91002c20 	add	x0, x1, #0xb
 40267e4:	927df000 	and	x0, x0, #0xfffffffffffffff8
 40267e8:	f90013a0 	str	x0, [x29,#32]
 40267ec:	14000003 	b	40267f8 <tf_printf+0x1d8>
 40267f0:	f94017a2 	ldr	x2, [x29,#40]
 40267f4:	8b23c041 	add	x1, x2, w3, sxtw
 40267f8:	b9400020 	ldr	w0, [x1]
 40267fc:	52800201 	mov	w1, #0x10                  	// #16
 4026800:	14000021 	b	4026884 <tf_printf+0x264>
 4026804:	91000673 	add	x19, x19, #0x1
 4026808:	52800024 	mov	w4, #0x1                   	// #1
 402680c:	17ffff9a 	b	4026674 <tf_printf+0x54>
 4026810:	b9403ba0 	ldr	w0, [x29,#56]
 4026814:	f94013a1 	ldr	x1, [x29,#32]
 4026818:	340001c4 	cbz	w4, 4026850 <tf_printf+0x230>
 402681c:	36f800a0 	tbz	w0, #31, 4026830 <tf_printf+0x210>
 4026820:	11002002 	add	w2, w0, #0x8
 4026824:	b9003ba2 	str	w2, [x29,#56]
 4026828:	6b1f005f 	cmp	w2, wzr
 402682c:	540000ad 	b.le	4026840 <tf_printf+0x220>
 4026830:	91003c20 	add	x0, x1, #0xf
 4026834:	927df000 	and	x0, x0, #0xfffffffffffffff8
 4026838:	f90013a0 	str	x0, [x29,#32]
 402683c:	14000003 	b	4026848 <tf_printf+0x228>
 4026840:	f94017a2 	ldr	x2, [x29,#40]
 4026844:	8b20c041 	add	x1, x2, w0, sxtw
 4026848:	f9400020 	ldr	x0, [x1]
 402684c:	1400000d 	b	4026880 <tf_printf+0x260>
 4026850:	36f800a0 	tbz	w0, #31, 4026864 <tf_printf+0x244>
 4026854:	11002002 	add	w2, w0, #0x8
 4026858:	b9003ba2 	str	w2, [x29,#56]
 402685c:	6b1f005f 	cmp	w2, wzr
 4026860:	540000ad 	b.le	4026874 <tf_printf+0x254>
 4026864:	91002c20 	add	x0, x1, #0xb
 4026868:	927df000 	and	x0, x0, #0xfffffffffffffff8
 402686c:	f90013a0 	str	x0, [x29,#32]
 4026870:	14000003 	b	402687c <tf_printf+0x25c>
 4026874:	f94017a2 	ldr	x2, [x29,#40]
 4026878:	8b20c041 	add	x1, x2, w0, sxtw
 402687c:	b9400020 	ldr	w0, [x1]
 4026880:	52800141 	mov	w1, #0xa                   	// #10
 4026884:	97ffff4a 	bl	40265ac <unsigned_num_print>
 4026888:	91000673 	add	x19, x19, #0x1
 402688c:	17ffff74 	b	402665c <tf_printf+0x3c>
 4026890:	9400001b 	bl	40268fc <putchar>
 4026894:	17ffff72 	b	402665c <tf_printf+0x3c>
 4026898:	a94153f3 	ldp	x19, x20, [sp,#16]
 402689c:	a8c87bfd 	ldp	x29, x30, [sp],#128
 40268a0:	d65f03c0 	ret

00000000040268a4 <__assert>:
 40268a4:	a9bf7bfd 	stp	x29, x30, [sp,#-16]!
 40268a8:	aa0003e1 	mov	x1, x0
 40268ac:	d0000000 	adrp	x0, 4028000 <__func__.2394+0x40>
 40268b0:	910003fd 	mov	x29, sp
 40268b4:	912c7000 	add	x0, x0, #0xb1c
 40268b8:	97ffff5a 	bl	4026620 <tf_printf>
 40268bc:	14000000 	b	40268bc <__assert+0x18>

00000000040268c0 <memset>:
 40268c0:	d2800003 	mov	x3, #0x0                   	// #0
 40268c4:	eb03005f 	cmp	x2, x3
 40268c8:	54000080 	b.eq	40268d8 <memset+0x18>
 40268cc:	38236801 	strb	w1, [x0,x3]
 40268d0:	91000463 	add	x3, x3, #0x1
 40268d4:	17fffffc 	b	40268c4 <memset+0x4>
 40268d8:	d65f03c0 	ret

00000000040268dc <memcpy>:
 40268dc:	d2800003 	mov	x3, #0x0                   	// #0
 40268e0:	eb03005f 	cmp	x2, x3
 40268e4:	540000a0 	b.eq	40268f8 <memcpy+0x1c>
 40268e8:	38636824 	ldrb	w4, [x1,x3]
 40268ec:	38236804 	strb	w4, [x0,x3]
 40268f0:	91000463 	add	x3, x3, #0x1
 40268f4:	17fffffb 	b	40268e0 <memcpy+0x4>
 40268f8:	d65f03c0 	ret

00000000040268fc <putchar>:
 40268fc:	a9be7bfd 	stp	x29, x30, [sp,#-32]!
 4026900:	910003fd 	mov	x29, sp
 4026904:	f9000bf3 	str	x19, [sp,#16]
 4026908:	2a0003f3 	mov	w19, w0
 402690c:	53001c00 	uxtb	w0, w0
 4026910:	940002c6 	bl	4027428 <console_putc>
 4026914:	6b1f001f 	cmp	w0, wzr
 4026918:	5a9fa260 	csinv	w0, w19, wzr, ge
 402691c:	f9400bf3 	ldr	x19, [sp,#16]
 4026920:	a8c27bfd 	ldp	x29, x30, [sp],#32
 4026924:	d65f03c0 	ret

0000000004026928 <enable_mmu_el3>:
 4026928:	a9bf7bfd 	stp	x29, x30, [sp,#-16]!
 402692c:	910003fd 	mov	x29, sp
 4026930:	d5384241 	mrs	x1, currentel
 4026934:	d3420c21 	ubfx	x1, x1, #2, #2
 4026938:	f1000c3f 	cmp	x1, #0x3
 402693c:	54000080 	b.eq	402694c <enable_mmu_el3+0x24>
 4026940:	d0000003 	adrp	x3, 4028000 <__func__.2394+0x40>
 4026944:	91318463 	add	x3, x3, #0xc61
 4026948:	14000005 	b	402695c <enable_mmu_el3+0x34>
 402694c:	d53e1001 	mrs	x1, sctlr_el3
 4026950:	36000121 	tbz	w1, #0, 4026974 <enable_mmu_el3+0x4c>
 4026954:	d0000003 	adrp	x3, 4028000 <__func__.2394+0x40>
 4026958:	9131b463 	add	x3, x3, #0xc6d
 402695c:	d0000001 	adrp	x1, 4028000 <__func__.2394+0x40>
 4026960:	d0000000 	adrp	x0, 4028000 <__func__.2394+0x40>
 4026964:	52802c02 	mov	w2, #0x160                 	// #352
 4026968:	912d7c21 	add	x1, x1, #0xb5f
 402696c:	91326000 	add	x0, x0, #0xc98
 4026970:	97ffffcd 	bl	40268a4 <__assert>
 4026974:	d2809fe1 	mov	x1, #0x4ff                 	// #1279
 4026978:	d51ea201 	msr	mair_el3, x1
 402697c:	d50e871f 	tlbi	alle3
 4026980:	b0000021 	adrp	x1, 402b000 <psci_ns_context+0x3d0>
 4026984:	d286a402 	mov	x2, #0x3520                	// #13600
 4026988:	f2b01002 	movk	x2, #0x8080, lsl #16
 402698c:	f9402821 	ldr	x1, [x1,#80]
 4026990:	aa014041 	orr	x1, x2, x1, lsl #16
 4026994:	d51e2041 	msr	tcr_el3, x1
 4026998:	b0000021 	adrp	x1, 402b000 <psci_ns_context+0x3d0>
 402699c:	91018021 	add	x1, x1, #0x60
 40269a0:	d51e2001 	msr	ttbr0_el3, x1
 40269a4:	d5033f9f 	dsb	sy
 40269a8:	d5033fdf 	isb
 40269ac:	d53e1001 	mrs	x1, sctlr_el3
 40269b0:	360000a0 	tbz	w0, #0, 40269c4 <enable_mmu_el3+0x9c>
 40269b4:	121d7820 	and	w0, w1, #0xfffffffb
 40269b8:	52800021 	mov	w1, #0x1                   	// #1
 40269bc:	72a00101 	movk	w1, #0x8, lsl #16
 40269c0:	14000003 	b	40269cc <enable_mmu_el3+0xa4>
 40269c4:	528000a0 	mov	w0, #0x5                   	// #5
 40269c8:	72a00100 	movk	w0, #0x8, lsl #16
 40269cc:	2a010000 	orr	w0, w0, w1
 40269d0:	d51e1000 	msr	sctlr_el3, x0
 40269d4:	d5033fdf 	isb
 40269d8:	a8c17bfd 	ldp	x29, x30, [sp],#16
 40269dc:	d65f03c0 	ret

00000000040269e0 <bl31_plat_enable_mmu>:
 40269e0:	17ffffd2 	b	4026928 <enable_mmu_el3>

00000000040269e4 <cortex_a53_disable_dcache>:
 40269e4:	d53e1001 	mrs	x1, sctlr_el3
 40269e8:	927df821 	and	x1, x1, #0xfffffffffffffffb
 40269ec:	d51e1001 	msr	sctlr_el3, x1
 40269f0:	d5033fdf 	isb
 40269f4:	d65f03c0 	ret

00000000040269f8 <cortex_a53_disable_smp>:
 40269f8:	d539f220 	mrs	x0, s3_1_c15_c2_1
 40269fc:	9279f800 	and	x0, x0, #0xffffffffffffffbf
 4026a00:	d519f220 	msr	s3_1_c15_c2_1, x0
 4026a04:	d5033fdf 	isb
 4026a08:	d5033f9f 	dsb	sy
 4026a0c:	d65f03c0 	ret

0000000004026a10 <cortex_a53_reset_func>:
 4026a10:	aa1e03f3 	mov	x19, x30
 4026a14:	d5380000 	mrs	x0, midr_el1
 4026a18:	d3505c0f 	ubfx	x15, x0, #16, #8
 4026a1c:	b3400c0f 	bfxil	x15, x0, #0, #4
 4026a20:	d539f220 	mrs	x0, s3_1_c15_c2_1
 4026a24:	f27a001f 	tst	x0, #0x40
 4026a28:	54000061 	b.ne	4026a34 <skip_smp_setup>
 4026a2c:	b27a0000 	orr	x0, x0, #0x40
 4026a30:	d519f220 	msr	s3_1_c15_c2_1, x0

0000000004026a34 <skip_smp_setup>:
 4026a34:	d5033fdf 	isb
 4026a38:	d65f0260 	ret	x19

0000000004026a3c <cortex_a53_core_pwr_dwn>:
 4026a3c:	aa1e03f2 	mov	x18, x30
 4026a40:	97ffffe9 	bl	40269e4 <cortex_a53_disable_dcache>
 4026a44:	d2800020 	mov	x0, #0x1                   	// #1
 4026a48:	94000259 	bl	40273ac <dcsw_op_level1>
 4026a4c:	aa1203fe 	mov	x30, x18
 4026a50:	17ffffea 	b	40269f8 <cortex_a53_disable_smp>

0000000004026a54 <cortex_a53_cluster_pwr_dwn>:
 4026a54:	aa1e03f2 	mov	x18, x30
 4026a58:	97ffffe3 	bl	40269e4 <cortex_a53_disable_dcache>
 4026a5c:	d2800020 	mov	x0, #0x1                   	// #1
 4026a60:	94000253 	bl	40273ac <dcsw_op_level1>
 4026a64:	9400026b 	bl	4027410 <plat_disable_acp>
 4026a68:	d2800020 	mov	x0, #0x1                   	// #1
 4026a6c:	94000254 	bl	40273bc <dcsw_op_level2>
 4026a70:	aa1203fe 	mov	x30, x18
 4026a74:	17ffffe1 	b	40269f8 <cortex_a53_disable_smp>

0000000004026a78 <cortex_a53_cpu_reg_dump>:
 4026a78:	70011166 	adr	x6, 4028ca7 <cortex_a53_regs>
 4026a7c:	d539f228 	mrs	x8, s3_1_c15_c2_1
 4026a80:	d65f03c0 	ret
 4026a84:	00000000 	.inst	0x00000000 ; undefined

0000000004026a88 <plat_get_my_stack>:
 4026a88:	aa1e03ea 	mov	x10, x30
 4026a8c:	94000294 	bl	40274dc <plat_my_core_pos>
 4026a90:	58000082 	ldr	x2, 4026aa0 <plat_get_my_stack+0x18>
 4026a94:	d2808001 	mov	x1, #0x400                 	// #1024
 4026a98:	9b010800 	madd	x0, x0, x1, x2
 4026a9c:	d65f0140 	ret	x10
 4026aa0:	0402a700 	.word	0x0402a700
 4026aa4:	00000000 	.word	0x00000000

0000000004026aa8 <plat_set_my_stack>:
 4026aa8:	aa1e03e9 	mov	x9, x30
 4026aac:	97fffff7 	bl	4026a88 <plat_get_my_stack>
 4026ab0:	9100001f 	mov	sp, x0
 4026ab4:	d65f0120 	ret	x9

0000000004026ab8 <init_cpu_data_ptr>:
 4026ab8:	aa1e03ea 	mov	x10, x30
 4026abc:	94000288 	bl	40274dc <plat_my_core_pos>
 4026ac0:	94000003 	bl	4026acc <_cpu_data_by_index>
 4026ac4:	d51ed040 	msr	tpidr_el3, x0
 4026ac8:	d65f0140 	ret	x10

0000000004026acc <_cpu_data_by_index>:
 4026acc:	10022fa1 	adr	x1, 402b0c0 <percpu_data>
 4026ad0:	8b001c20 	add	x0, x1, x0, lsl #7
 4026ad4:	d65f03c0 	ret

0000000004026ad8 <smc_handler>:
 4026ad8:	37f00520 	tbnz	w0, #30, 4026b7c <smc_prohibited>
 4026adc:	a90427e8 	stp	x8, x9, [sp,#64]
 4026ae0:	a9052fea 	stp	x10, x11, [sp,#80]
 4026ae4:	a90637ec 	stp	x12, x13, [sp,#96]
 4026ae8:	a9073fee 	stp	x14, x15, [sp,#112]
 4026aec:	a90847f0 	stp	x16, x17, [sp,#128]

0000000004026af0 <smc_handler64>:
 4026af0:	a90217e4 	stp	x4, x5, [sp,#32]
 4026af4:	a9031fe6 	stp	x6, x7, [sp,#48]
 4026af8:	a9094ff2 	stp	x18, x19, [sp,#144]
 4026afc:	a90a57f4 	stp	x20, x21, [sp,#160]
 4026b00:	a90b5ff6 	stp	x22, x23, [sp,#176]
 4026b04:	a90c67f8 	stp	x24, x25, [sp,#192]
 4026b08:	a90d6ffa 	stp	x26, x27, [sp,#208]
 4026b0c:	a90e77fc 	stp	x28, x29, [sp,#224]
 4026b10:	d5384112 	mrs	x18, sp_el0
 4026b14:	f9007ff2 	str	x18, [sp,#248]
 4026b18:	aa1f03e5 	mov	x5, xzr
 4026b1c:	910003e6 	mov	x6, sp
 4026b20:	d3587410 	ubfx	x16, x0, #24, #6
 4026b24:	d35f7c0f 	ubfx	x15, x0, #31, #1
 4026b28:	aa0f1a10 	orr	x16, x16, x15, lsl #6
 4026b2c:	1001256b 	adr	x11, 4028fd8 <__RT_SVC_DESCS_START__+0x18>
 4026b30:	1002348e 	adr	x14, 402b1c0 <rt_svc_descs_indices>
 4026b34:	387069cf 	ldrb	w15, [x14,x16]
 4026b38:	f94084cc 	ldr	x12, [x6,#264]
 4026b3c:	373801cf 	tbnz	w15, #7, 4026b74 <smc_unknown>
 4026b40:	d50040bf 	msr	spsel, #0x0
 4026b44:	531b69ea 	lsl	w10, w15, #5
 4026b48:	f86a496f 	ldr	x15, [x11,w10,uxtw]
 4026b4c:	d53e4010 	mrs	x16, spsr_el3
 4026b50:	d53e4031 	mrs	x17, elr_el3
 4026b54:	d53e1112 	mrs	x18, scr_el3
 4026b58:	a91144d0 	stp	x16, x17, [x6,#272]
 4026b5c:	f90080d2 	str	x18, [x6,#256]
 4026b60:	b3400247 	bfxil	x7, x18, #0, #1
 4026b64:	9100019f 	mov	sp, x12
 4026b68:	b400010f 	cbz	x15, 4026b88 <rt_svc_fw_critical_error>
 4026b6c:	d63f01e0 	blr	x15
 4026b70:	140000eb 	b	4026f1c <el3_exit>

0000000004026b74 <smc_unknown>:
 4026b74:	12800000 	mov	w0, #0xffffffff            	// #-1
 4026b78:	140000d9 	b	4026edc <restore_gp_registers_callee_eret>

0000000004026b7c <smc_prohibited>:
 4026b7c:	f9407bfe 	ldr	x30, [sp,#240]
 4026b80:	12800000 	mov	w0, #0xffffffff            	// #-1
 4026b84:	d69f03e0 	eret

0000000004026b88 <rt_svc_fw_critical_error>:
 4026b88:	d50041bf 	msr	spsel, #0x1
 4026b8c:	9400001c 	bl	4026bfc <report_unhandled_exception>

0000000004026b90 <print_newline>:
 4026b90:	d2800140 	mov	x0, #0xa                   	// #10
 4026b94:	1400025f 	b	4027510 <plat_crash_console_putc>

0000000004026b98 <size_controlled_print>:
 4026b98:	910003df 	mov	sp, x30
 4026b9c:	d53ed047 	mrs	x7, tpidr_el3

0000000004026ba0 <test_size_list>:
 4026ba0:	d53ed045 	mrs	x5, tpidr_el3
 4026ba4:	910100a5 	add	x5, x5, #0x40
 4026ba8:	eb0500ff 	cmp	x7, x5
 4026bac:	54000180 	b.eq	4026bdc <exit_size_print>
 4026bb0:	394000c4 	ldrb	w4, [x6]
 4026bb4:	34000144 	cbz	w4, 4026bdc <exit_size_print>
 4026bb8:	aa0603e4 	mov	x4, x6
 4026bbc:	9400017d 	bl	40271b0 <asm_print_str>
 4026bc0:	aa0403e6 	mov	x6, x4
 4026bc4:	30010784 	adr	x4, 4028cb5 <print_spacer>
 4026bc8:	9400017a 	bl	40271b0 <asm_print_str>
 4026bcc:	f84084e4 	ldr	x4, [x7],#8
 4026bd0:	9400017e 	bl	40271c8 <asm_print_hex>
 4026bd4:	97ffffef 	bl	4026b90 <print_newline>
 4026bd8:	17fffff2 	b	4026ba0 <test_size_list>

0000000004026bdc <exit_size_print>:
 4026bdc:	910003fe 	mov	x30, sp
 4026be0:	d65f03c0 	ret

0000000004026be4 <str_in_crash_buf_print>:
 4026be4:	d53ed040 	mrs	x0, tpidr_el3
 4026be8:	a9002408 	stp	x8, x9, [x0]
 4026bec:	a9012c0a 	stp	x10, x11, [x0,#16]
 4026bf0:	a902340c 	stp	x12, x13, [x0,#32]
 4026bf4:	a9033c0e 	stp	x14, x15, [x0,#48]
 4026bf8:	17ffffe8 	b	4026b98 <size_controlled_print>

0000000004026bfc <report_unhandled_exception>:
 4026bfc:	9100001f 	mov	sp, x0
 4026c00:	d53ed040 	mrs	x0, tpidr_el3
 4026c04:	91006000 	add	x0, x0, #0x18
 4026c08:	d51ed040 	msr	tpidr_el3, x0
 4026c0c:	f9000401 	str	x1, [x0,#8]
 4026c10:	910003e1 	mov	x1, sp
 4026c14:	f9000001 	str	x1, [x0]
 4026c18:	70011760 	adr	x0, 4028f07 <excpt_msg>
 4026c1c:	9100001f 	mov	sp, x0
 4026c20:	14000016 	b	4026c78 <do_crash_reporting>

0000000004026c24 <report_unhandled_interrupt>:
 4026c24:	9100001f 	mov	sp, x0
 4026c28:	d53ed040 	mrs	x0, tpidr_el3
 4026c2c:	91006000 	add	x0, x0, #0x18
 4026c30:	d51ed040 	msr	tpidr_el3, x0
 4026c34:	f9000401 	str	x1, [x0,#8]
 4026c38:	910003e1 	mov	x1, sp
 4026c3c:	f9000001 	str	x1, [x0]
 4026c40:	30011760 	adr	x0, 4028f2d <intr_excpt_msg>
 4026c44:	9100001f 	mov	sp, x0
 4026c48:	1400000c 	b	4026c78 <do_crash_reporting>

0000000004026c4c <el3_panic>:
 4026c4c:	d50041bf 	msr	spsel, #0x1
 4026c50:	9100001f 	mov	sp, x0
 4026c54:	d53ed040 	mrs	x0, tpidr_el3
 4026c58:	91006000 	add	x0, x0, #0x18
 4026c5c:	d51ed040 	msr	tpidr_el3, x0
 4026c60:	f9000401 	str	x1, [x0,#8]
 4026c64:	910003e1 	mov	x1, sp
 4026c68:	f9000001 	str	x1, [x0]
 4026c6c:	50011400 	adr	x0, 4028eee <panic_msg>
 4026c70:	9100001f 	mov	sp, x0
 4026c74:	14000001 	b	4026c78 <do_crash_reporting>

0000000004026c78 <do_crash_reporting>:
 4026c78:	d53ed040 	mrs	x0, tpidr_el3
 4026c7c:	a9010c02 	stp	x2, x3, [x0,#16]
 4026c80:	a9021404 	stp	x4, x5, [x0,#32]
 4026c84:	a9037806 	stp	x6, x30, [x0,#48]
 4026c88:	9400021b 	bl	40274f4 <plat_crash_console_init>
 4026c8c:	b4000a20 	cbz	x0, 4026dd0 <crash_panic>
 4026c90:	910003e4 	mov	x4, sp
 4026c94:	94000147 	bl	40271b0 <asm_print_str>
 4026c98:	d53ed040 	mrs	x0, tpidr_el3
 4026c9c:	f9401c04 	ldr	x4, [x0,#56]
 4026ca0:	9400014a 	bl	40271c8 <asm_print_hex>
 4026ca4:	97ffffbb 	bl	4026b90 <print_newline>
 4026ca8:	d53ed040 	mrs	x0, tpidr_el3
 4026cac:	f9001c07 	str	x7, [x0,#56]
 4026cb0:	10010066 	adr	x6, 4028cbc <gp_regs>
 4026cb4:	97ffffb9 	bl	4026b98 <size_controlled_print>
 4026cb8:	97ffffcb 	bl	4026be4 <str_in_crash_buf_print>
 4026cbc:	d53ed040 	mrs	x0, tpidr_el3
 4026cc0:	a9004410 	stp	x16, x17, [x0]
 4026cc4:	a9014c12 	stp	x18, x19, [x0,#16]
 4026cc8:	a9025414 	stp	x20, x21, [x0,#32]
 4026ccc:	a9035c16 	stp	x22, x23, [x0,#48]
 4026cd0:	97ffffb2 	bl	4026b98 <size_controlled_print>
 4026cd4:	d53ed040 	mrs	x0, tpidr_el3
 4026cd8:	a9006418 	stp	x24, x25, [x0]
 4026cdc:	a9016c1a 	stp	x26, x27, [x0,#16]
 4026ce0:	a902741c 	stp	x28, x29, [x0,#32]
 4026ce4:	97ffffad 	bl	4026b98 <size_controlled_print>
 4026ce8:	70010206 	adr	x6, 4028d2b <el3_sys_regs>
 4026cec:	d53e1108 	mrs	x8, scr_el3
 4026cf0:	d53e1009 	mrs	x9, sctlr_el3
 4026cf4:	d53e114a 	mrs	x10, cptr_el3
 4026cf8:	d53e204b 	mrs	x11, tcr_el3
 4026cfc:	d53b422c 	mrs	x12, daif
 4026d00:	d53ea20d 	mrs	x13, mair_el3
 4026d04:	d53e400e 	mrs	x14, spsr_el3
 4026d08:	d53e402f 	mrs	x15, elr_el3
 4026d0c:	97ffffb6 	bl	4026be4 <str_in_crash_buf_print>
 4026d10:	d53e2008 	mrs	x8, ttbr0_el3
 4026d14:	d53e5209 	mrs	x9, esr_el3
 4026d18:	d53e600a 	mrs	x10, far_el3
 4026d1c:	97ffffb2 	bl	4026be4 <str_in_crash_buf_print>
 4026d20:	10010346 	adr	x6, 4028d88 <non_el3_sys_regs>
 4026d24:	d5384008 	mrs	x8, spsr_el1
 4026d28:	d5384029 	mrs	x9, elr_el1
 4026d2c:	d53c432a 	mrs	x10, spsr_abt
 4026d30:	d53c434b 	mrs	x11, spsr_und
 4026d34:	d53c430c 	mrs	x12, spsr_irq
 4026d38:	d53c436d 	mrs	x13, spsr_fiq
 4026d3c:	d538100e 	mrs	x14, sctlr_el1
 4026d40:	d538102f 	mrs	x15, actlr_el1
 4026d44:	97ffffa8 	bl	4026be4 <str_in_crash_buf_print>
 4026d48:	d5381048 	mrs	x8, cpacr_el1
 4026d4c:	d53a0009 	mrs	x9, csselr_el1
 4026d50:	d53c410a 	mrs	x10, sp_el1
 4026d54:	d538520b 	mrs	x11, esr_el1
 4026d58:	d538200c 	mrs	x12, ttbr0_el1
 4026d5c:	d538202d 	mrs	x13, ttbr1_el1
 4026d60:	d538a20e 	mrs	x14, mair_el1
 4026d64:	d538a30f 	mrs	x15, amair_el1
 4026d68:	97ffff9f 	bl	4026be4 <str_in_crash_buf_print>
 4026d6c:	d5382048 	mrs	x8, tcr_el1
 4026d70:	d538d089 	mrs	x9, tpidr_el1
 4026d74:	d53bd04a 	mrs	x10, tpidr_el0
 4026d78:	d53bd06b 	mrs	x11, tpidrro_el0
 4026d7c:	d53c300c 	mrs	x12, dacr32_el2
 4026d80:	d53c502d 	mrs	x13, ifsr32_el2
 4026d84:	d538740e 	mrs	x14, par_el1
 4026d88:	d53800af 	mrs	x15, mpidr_el1
 4026d8c:	97ffff96 	bl	4026be4 <str_in_crash_buf_print>
 4026d90:	d5385108 	mrs	x8, afsr0_el1
 4026d94:	d5385129 	mrs	x9, afsr1_el1
 4026d98:	d538d02a 	mrs	x10, contextidr_el1
 4026d9c:	d538c00b 	mrs	x11, vbar_el1
 4026da0:	d53be22c 	mrs	x12, cntp_ctl_el0
 4026da4:	d53be24d 	mrs	x13, cntp_cval_el0
 4026da8:	d53be32e 	mrs	x14, cntv_ctl_el0
 4026dac:	d53be34f 	mrs	x15, cntv_cval_el0
 4026db0:	97ffff8d 	bl	4026be4 <str_in_crash_buf_print>
 4026db4:	d538e108 	mrs	x8, cntkctl_el1
 4026db8:	d53c5309 	mrs	x9, fpexc32_el2
 4026dbc:	d538410a 	mrs	x10, sp_el0
 4026dc0:	97ffff89 	bl	4026be4 <str_in_crash_buf_print>
 4026dc4:	9400008b 	bl	4026ff0 <do_cpu_reg_dump>
 4026dc8:	97ffff87 	bl	4026be4 <str_in_crash_buf_print>
 4026dcc:	14000001 	b	4026dd0 <crash_panic>

0000000004026dd0 <crash_panic>:
 4026dd0:	14000000 	b	4026dd0 <crash_panic>

0000000004026dd4 <el1_sysregs_context_restore>:
 4026dd4:	a9402809 	ldp	x9, x10, [x0]
 4026dd8:	d5184009 	msr	spsr_el1, x9
 4026ddc:	d518402a 	msr	elr_el1, x10
 4026de0:	a941300b 	ldp	x11, x12, [x0,#16]
 4026de4:	d51c432b 	msr	spsr_abt, x11
 4026de8:	d51c434c 	msr	spsr_und, x12
 4026dec:	a942380d 	ldp	x13, x14, [x0,#32]
 4026df0:	d51c430d 	msr	spsr_irq, x13
 4026df4:	d51c436e 	msr	spsr_fiq, x14
 4026df8:	a943400f 	ldp	x15, x16, [x0,#48]
 4026dfc:	d518100f 	msr	sctlr_el1, x15
 4026e00:	d5181030 	msr	actlr_el1, x16
 4026e04:	a9442411 	ldp	x17, x9, [x0,#64]
 4026e08:	d5181051 	msr	cpacr_el1, x17
 4026e0c:	d51a0009 	msr	csselr_el1, x9
 4026e10:	a9452c0a 	ldp	x10, x11, [x0,#80]
 4026e14:	d51c410a 	msr	sp_el1, x10
 4026e18:	d518520b 	msr	esr_el1, x11
 4026e1c:	a946340c 	ldp	x12, x13, [x0,#96]
 4026e20:	d518200c 	msr	ttbr0_el1, x12
 4026e24:	d518202d 	msr	ttbr1_el1, x13
 4026e28:	a9473c0e 	ldp	x14, x15, [x0,#112]
 4026e2c:	d518a20e 	msr	mair_el1, x14
 4026e30:	d518a30f 	msr	amair_el1, x15
 4026e34:	a9484410 	ldp	x16, x17, [x0,#128]
 4026e38:	d5182050 	msr	tcr_el1, x16
 4026e3c:	d518d091 	msr	tpidr_el1, x17
 4026e40:	a9492809 	ldp	x9, x10, [x0,#144]
 4026e44:	d51bd049 	msr	tpidr_el0, x9
 4026e48:	d51bd06a 	msr	tpidrro_el0, x10
 4026e4c:	a94a300b 	ldp	x11, x12, [x0,#160]
 4026e50:	d51c300b 	msr	dacr32_el2, x11
 4026e54:	d51c502c 	msr	ifsr32_el2, x12
 4026e58:	a94b380d 	ldp	x13, x14, [x0,#176]
 4026e5c:	d518740d 	msr	par_el1, x13
 4026e60:	d518600e 	msr	far_el1, x14
 4026e64:	a94c400f 	ldp	x15, x16, [x0,#192]
 4026e68:	d518510f 	msr	afsr0_el1, x15
 4026e6c:	d5185130 	msr	afsr1_el1, x16
 4026e70:	a94d2411 	ldp	x17, x9, [x0,#208]
 4026e74:	d518d031 	msr	contextidr_el1, x17
 4026e78:	d518c009 	msr	vbar_el1, x9
 4026e7c:	f940700f 	ldr	x15, [x0,#224]
 4026e80:	d51c530f 	msr	fpexc32_el2, x15
 4026e84:	d65f03c0 	ret

0000000004026e88 <save_gp_registers>:
 4026e88:	a90007e0 	stp	x0, x1, [sp]
 4026e8c:	a9010fe2 	stp	x2, x3, [sp,#16]
 4026e90:	a90217e4 	stp	x4, x5, [sp,#32]
 4026e94:	a9031fe6 	stp	x6, x7, [sp,#48]
 4026e98:	a90427e8 	stp	x8, x9, [sp,#64]
 4026e9c:	a9052fea 	stp	x10, x11, [sp,#80]
 4026ea0:	a90637ec 	stp	x12, x13, [sp,#96]
 4026ea4:	a9073fee 	stp	x14, x15, [sp,#112]
 4026ea8:	a90847f0 	stp	x16, x17, [sp,#128]
 4026eac:	a9094ff2 	stp	x18, x19, [sp,#144]
 4026eb0:	a90a57f4 	stp	x20, x21, [sp,#160]
 4026eb4:	a90b5ff6 	stp	x22, x23, [sp,#176]
 4026eb8:	a90c67f8 	stp	x24, x25, [sp,#192]
 4026ebc:	a90d6ffa 	stp	x26, x27, [sp,#208]
 4026ec0:	a90e77fc 	stp	x28, x29, [sp,#224]
 4026ec4:	d5384112 	mrs	x18, sp_el0
 4026ec8:	f9007ff2 	str	x18, [sp,#248]
 4026ecc:	d65f03c0 	ret

0000000004026ed0 <restore_gp_registers_eret>:
 4026ed0:	a94007e0 	ldp	x0, x1, [sp]
 4026ed4:	a9410fe2 	ldp	x2, x3, [sp,#16]
 4026ed8:	14000001 	b	4026edc <restore_gp_registers_callee_eret>

0000000004026edc <restore_gp_registers_callee_eret>:
 4026edc:	a94217e4 	ldp	x4, x5, [sp,#32]
 4026ee0:	a9431fe6 	ldp	x6, x7, [sp,#48]
 4026ee4:	a94427e8 	ldp	x8, x9, [sp,#64]
 4026ee8:	a9452fea 	ldp	x10, x11, [sp,#80]
 4026eec:	a94637ec 	ldp	x12, x13, [sp,#96]
 4026ef0:	a9473fee 	ldp	x14, x15, [sp,#112]
 4026ef4:	a9494ff2 	ldp	x18, x19, [sp,#144]
 4026ef8:	a94a57f4 	ldp	x20, x21, [sp,#160]
 4026efc:	a94b5ff6 	ldp	x22, x23, [sp,#176]
 4026f00:	a94c67f8 	ldp	x24, x25, [sp,#192]
 4026f04:	a94d6ffa 	ldp	x26, x27, [sp,#208]
 4026f08:	a94e77fc 	ldp	x28, x29, [sp,#224]
 4026f0c:	a94f47fe 	ldp	x30, x17, [sp,#240]
 4026f10:	d5184111 	msr	sp_el0, x17
 4026f14:	a94847f0 	ldp	x16, x17, [sp,#128]
 4026f18:	d69f03e0 	eret

0000000004026f1c <el3_exit>:
 4026f1c:	910003f1 	mov	x17, sp
 4026f20:	d50041bf 	msr	spsel, #0x1
 4026f24:	f90087f1 	str	x17, [sp,#264]
 4026f28:	f94083f2 	ldr	x18, [sp,#256]
 4026f2c:	a95147f0 	ldp	x16, x17, [sp,#272]
 4026f30:	d51e1112 	msr	scr_el3, x18
 4026f34:	d51e4010 	msr	spsr_el3, x16
 4026f38:	d51e4031 	msr	elr_el3, x17
 4026f3c:	17ffffe5 	b	4026ed0 <restore_gp_registers_eret>

0000000004026f40 <reset_handler>:
 4026f40:	aa1e03f3 	mov	x19, x30
 4026f44:	94000132 	bl	402740c <plat_reset_handler>
 4026f48:	94000032 	bl	4027010 <get_cpu_ops_ptr>
 4026f4c:	f100001f 	cmp	x0, #0x0
 4026f50:	54000081 	b.ne	4026f60 <reset_handler+0x20>
 4026f54:	30010040 	adr	x0, 4028f5d <intr_excpt_msg+0x30>
 4026f58:	d2800741 	mov	x1, #0x3a                  	// #58
 4026f5c:	1400007f 	b	4027158 <asm_assert>
 4026f60:	f9400402 	ldr	x2, [x0,#8]
 4026f64:	aa1303fe 	mov	x30, x19
 4026f68:	b4000042 	cbz	x2, 4026f70 <reset_handler+0x30>
 4026f6c:	d61f0040 	br	x2
 4026f70:	d65f03c0 	ret

0000000004026f74 <prepare_core_pwr_dwn>:
 4026f74:	d53ed041 	mrs	x1, tpidr_el3
 4026f78:	f9400820 	ldr	x0, [x1,#16]
 4026f7c:	f100001f 	cmp	x0, #0x0
 4026f80:	54000081 	b.ne	4026f90 <prepare_core_pwr_dwn+0x1c>
 4026f84:	3000fec0 	adr	x0, 4028f5d <intr_excpt_msg+0x30>
 4026f88:	d2800ac1 	mov	x1, #0x56                  	// #86
 4026f8c:	14000073 	b	4027158 <asm_assert>
 4026f90:	f9400801 	ldr	x1, [x0,#16]
 4026f94:	d61f0020 	br	x1

0000000004026f98 <prepare_cluster_pwr_dwn>:
 4026f98:	d53ed041 	mrs	x1, tpidr_el3
 4026f9c:	f9400820 	ldr	x0, [x1,#16]
 4026fa0:	f100001f 	cmp	x0, #0x0
 4026fa4:	54000081 	b.ne	4026fb4 <prepare_cluster_pwr_dwn+0x1c>
 4026fa8:	3000fda0 	adr	x0, 4028f5d <intr_excpt_msg+0x30>
 4026fac:	d2800d21 	mov	x1, #0x69                  	// #105
 4026fb0:	1400006a 	b	4027158 <asm_assert>
 4026fb4:	f9400c01 	ldr	x1, [x0,#24]
 4026fb8:	d61f0020 	br	x1

0000000004026fbc <init_cpu_ops>:
 4026fbc:	d53ed046 	mrs	x6, tpidr_el3
 4026fc0:	f94008c0 	ldr	x0, [x6,#16]
 4026fc4:	b5000140 	cbnz	x0, 4026fec <init_cpu_ops+0x30>
 4026fc8:	aa1e03ea 	mov	x10, x30
 4026fcc:	94000011 	bl	4027010 <get_cpu_ops_ptr>
 4026fd0:	f100001f 	cmp	x0, #0x0
 4026fd4:	54000081 	b.ne	4026fe4 <init_cpu_ops+0x28>
 4026fd8:	3000fc20 	adr	x0, 4028f5d <intr_excpt_msg+0x30>
 4026fdc:	d2801021 	mov	x1, #0x81                  	// #129
 4026fe0:	1400005e 	b	4027158 <asm_assert>
 4026fe4:	f8010cc0 	str	x0, [x6,#16]!
 4026fe8:	aa0a03fe 	mov	x30, x10
 4026fec:	d65f03c0 	ret

0000000004026ff0 <do_cpu_reg_dump>:
 4026ff0:	aa1e03f0 	mov	x16, x30
 4026ff4:	94000007 	bl	4027010 <get_cpu_ops_ptr>
 4026ff8:	b4000080 	cbz	x0, 4027008 <do_cpu_reg_dump+0x18>
 4026ffc:	f9401002 	ldr	x2, [x0,#32]
 4027000:	b4000042 	cbz	x2, 4027008 <do_cpu_reg_dump+0x18>
 4027004:	d63f0040 	blr	x2
 4027008:	aa1003fe 	mov	x30, x16
 402700c:	d65f03c0 	ret

0000000004027010 <get_cpu_ops_ptr>:
 4027010:	1000fe84 	adr	x4, 4028fe0 <__CPU_OPS_START__>
 4027014:	1000ffa5 	adr	x5, 4029008 <__CPU_OPS_END__>
 4027018:	d2800000 	mov	x0, #0x0                   	// #0
 402701c:	d5380002 	mrs	x2, midr_el1
 4027020:	d29ffe03 	mov	x3, #0xfff0                	// #65520
 4027024:	f2bfe003 	movk	x3, #0xff00, lsl #16
 4027028:	0a030042 	and	w2, w2, w3
 402702c:	eb05009f 	cmp	x4, x5
 4027030:	540000c0 	b.eq	4027048 <error_exit>
 4027034:	f8428481 	ldr	x1, [x4],#40
 4027038:	0a030021 	and	w1, w1, w3
 402703c:	6b02003f 	cmp	w1, w2
 4027040:	54ffff61 	b.ne	402702c <get_cpu_ops_ptr+0x1c>
 4027044:	d100a080 	sub	x0, x4, #0x28

0000000004027048 <error_exit>:
 4027048:	d65f03c0 	ret

000000000402704c <spin_lock>:
 402704c:	52800022 	mov	w2, #0x1                   	// #1
 4027050:	d50320bf 	sevl

0000000004027054 <l1>:
 4027054:	d503205f 	wfe

0000000004027058 <l2>:
 4027058:	885ffc01 	ldaxr	w1, [x0]
 402705c:	35ffffc1 	cbnz	w1, 4027054 <l1>
 4027060:	88017c02 	stxr	w1, w2, [x0]
 4027064:	35ffffa1 	cbnz	w1, 4027058 <l2>
 4027068:	d65f03c0 	ret

000000000402706c <spin_unlock>:
 402706c:	889ffc1f 	stlr	wzr, [x0]
 4027070:	d65f03c0 	ret

0000000004027074 <psci_entrypoint>:
 4027074:	97ffffb3 	bl	4026f40 <reset_handler>
 4027078:	d2820141 	mov	x1, #0x100a                	// #4106
 402707c:	d53e1000 	mrs	x0, sctlr_el3
 4027080:	aa010000 	orr	x0, x0, x1
 4027084:	d51e1000 	msr	sctlr_el3, x0
 4027088:	d5033fdf 	isb
 402708c:	97fffe8b 	bl	4026ab8 <init_cpu_data_ptr>
 4027090:	10013b80 	adr	x0, 4029800 <runtime_exceptions>
 4027094:	d51ec000 	msr	vbar_el3, x0
 4027098:	d5033fdf 	isb
 402709c:	d50344ff 	msr	daifclr, #0x4
 40270a0:	d53e1140 	mrs	x0, cptr_el3
 40270a4:	12007800 	and	w0, w0, #0x7fffffff
 40270a8:	120b7800 	and	w0, w0, #0xffefffff
 40270ac:	12157800 	and	w0, w0, #0xfffffbff
 40270b0:	d51e1140 	msr	cptr_el3, x0
 40270b4:	d50040bf 	msr	spsel, #0x0
 40270b8:	97fffe7c 	bl	4026aa8 <plat_set_my_stack>
 40270bc:	d2800020 	mov	x0, #0x1                   	// #1
 40270c0:	97fffe48 	bl	40269e0 <bl31_plat_enable_mmu>
 40270c4:	97fffa0e 	bl	40258fc <psci_power_up_finish>
 40270c8:	17ffff95 	b	4026f1c <el3_exit>

00000000040270cc <psci_power_down_wfi>:
 40270cc:	d5033f9f 	dsb	sy
 40270d0:	d503207f 	wfi

00000000040270d4 <wfi_spill>:
 40270d4:	14000000 	b	40270d4 <wfi_spill>

00000000040270d8 <psci_do_pwrdown_cache_maintenance>:
 40270d8:	a9bf7bfd 	stp	x29, x30, [sp,#-16]!
 40270dc:	a9bf53f3 	stp	x19, x20, [sp,#-16]!
 40270e0:	7100001f 	cmp	w0, #0x0
 40270e4:	54000060 	b.eq	40270f0 <do_core_pwr_dwn>
 40270e8:	97ffffac 	bl	4026f98 <prepare_cluster_pwr_dwn>
 40270ec:	14000002 	b	40270f4 <do_stack_maintenance>

00000000040270f0 <do_core_pwr_dwn>:
 40270f0:	97ffffa1 	bl	4026f74 <prepare_core_pwr_dwn>

00000000040270f4 <do_stack_maintenance>:
 40270f4:	97fffe65 	bl	4026a88 <plat_get_my_stack>
 40270f8:	aa0003f3 	mov	x19, x0
 40270fc:	910003e1 	mov	x1, sp
 4027100:	cb010001 	sub	x1, x0, x1
 4027104:	910003e0 	mov	x0, sp
 4027108:	9400004b 	bl	4027234 <flush_dcache_range>
 402710c:	d1100260 	sub	x0, x19, #0x400
 4027110:	cb2063e1 	sub	x1, sp, x0
 4027114:	94000062 	bl	402729c <inv_dcache_range>
 4027118:	a8c153f3 	ldp	x19, x20, [sp],#16
 402711c:	a8c17bfd 	ldp	x29, x30, [sp],#16
 4027120:	d65f03c0 	ret

0000000004027124 <psci_do_pwrup_cache_maintenance>:
 4027124:	a9bf7bfd 	stp	x29, x30, [sp,#-16]!
 4027128:	d5033ebf 	dmb	st
 402712c:	97fffe57 	bl	4026a88 <plat_get_my_stack>
 4027130:	910003e1 	mov	x1, sp
 4027134:	cb010001 	sub	x1, x0, x1
 4027138:	910003e0 	mov	x0, sp
 402713c:	94000058 	bl	402729c <inv_dcache_range>
 4027140:	d53e1000 	mrs	x0, sctlr_el3
 4027144:	b27e0000 	orr	x0, x0, #0x4
 4027148:	d51e1000 	msr	sctlr_el3, x0
 402714c:	d5033fdf 	isb
 4027150:	a8c17bfd 	ldp	x29, x30, [sp],#16
 4027154:	d65f03c0 	ret

0000000004027158 <asm_assert>:
 4027158:	aa0003e5 	mov	x5, x0
 402715c:	aa0103e6 	mov	x6, x1
 4027160:	940000e5 	bl	40274f4 <plat_crash_console_init>
 4027164:	b4000240 	cbz	x0, 40271ac <_assert_loop>
 4027168:	1000f0a4 	adr	x4, 4028f7c <assert_msg1>
 402716c:	94000011 	bl	40271b0 <asm_print_str>
 4027170:	aa0503e4 	mov	x4, x5
 4027174:	9400000f 	bl	40271b0 <asm_print_str>
 4027178:	5000f084 	adr	x4, 4028f8a <assert_msg2>
 402717c:	9400000d 	bl	40271b0 <asm_print_str>
 4027180:	f270bcdf 	tst	x6, #0xffffffffffff0000
 4027184:	54000141 	b.ne	40271ac <_assert_loop>
 4027188:	aa0603e4 	mov	x4, x6
 402718c:	d2800146 	mov	x6, #0xa                   	// #10
 4027190:	d284e205 	mov	x5, #0x2710                	// #10000

0000000004027194 <dec_print_loop>:
 4027194:	9ac50880 	udiv	x0, x4, x5
 4027198:	9b059004 	msub	x4, x0, x5, x4
 402719c:	9100c000 	add	x0, x0, #0x30
 40271a0:	940000dc 	bl	4027510 <plat_crash_console_putc>
 40271a4:	9ac608a5 	udiv	x5, x5, x6
 40271a8:	b5ffff65 	cbnz	x5, 4027194 <dec_print_loop>

00000000040271ac <_assert_loop>:
 40271ac:	14000000 	b	40271ac <_assert_loop>

00000000040271b0 <asm_print_str>:
 40271b0:	aa1e03e3 	mov	x3, x30
 40271b4:	38401480 	ldrb	w0, [x4],#1
 40271b8:	b4000060 	cbz	x0, 40271c4 <asm_print_str+0x14>
 40271bc:	940000d5 	bl	4027510 <plat_crash_console_putc>
 40271c0:	17fffffd 	b	40271b4 <asm_print_str+0x4>
 40271c4:	d65f0060 	ret	x3

00000000040271c8 <asm_print_hex>:
 40271c8:	aa1e03e3 	mov	x3, x30
 40271cc:	d2800805 	mov	x5, #0x40                  	// #64
 40271d0:	d10010a5 	sub	x5, x5, #0x4
 40271d4:	9ac52480 	lsr	x0, x4, x5
 40271d8:	92400c00 	and	x0, x0, #0xf
 40271dc:	f100281f 	cmp	x0, #0xa
 40271e0:	54000043 	b.cc	40271e8 <asm_print_hex+0x20>
 40271e4:	91009c00 	add	x0, x0, #0x27
 40271e8:	9100c000 	add	x0, x0, #0x30
 40271ec:	940000c9 	bl	4027510 <plat_crash_console_putc>
 40271f0:	b5ffff05 	cbnz	x5, 40271d0 <asm_print_hex+0x8>
 40271f4:	d65f0060 	ret	x3

00000000040271f8 <do_panic>:
 40271f8:	f81f0fe0 	str	x0, [sp,#-16]!
 40271fc:	d5384240 	mrs	x0, currentel
 4027200:	d3420c00 	ubfx	x0, x0, #2, #2
 4027204:	f1000c1f 	cmp	x0, #0x3
 4027208:	f84107e0 	ldr	x0, [sp],#16
 402720c:	54ffd200 	b.eq	4026c4c <el3_panic>

0000000004027210 <panic_common>:
 4027210:	aa1e03e6 	mov	x6, x30
 4027214:	940000b8 	bl	40274f4 <plat_crash_console_init>
 4027218:	b40000c0 	cbz	x0, 4027230 <_panic_loop>
 402721c:	3000eba4 	adr	x4, 4028f91 <panic_msg>
 4027220:	97ffffe4 	bl	40271b0 <asm_print_str>
 4027224:	aa0603e4 	mov	x4, x6
 4027228:	d1001084 	sub	x4, x4, #0x4
 402722c:	97ffffe7 	bl	40271c8 <asm_print_hex>

0000000004027230 <_panic_loop>:
 4027230:	14000000 	b	4027230 <_panic_loop>

0000000004027234 <flush_dcache_range>:
 4027234:	d53b0023 	mrs	x3, ctr_el0
 4027238:	d3504c63 	ubfx	x3, x3, #16, #4
 402723c:	d2800082 	mov	x2, #0x4                   	// #4
 4027240:	9ac32042 	lsl	x2, x2, x3
 4027244:	8b010001 	add	x1, x0, x1
 4027248:	d1000443 	sub	x3, x2, #0x1
 402724c:	8a230000 	bic	x0, x0, x3

0000000004027250 <loop_civac>:
 4027250:	d50b7e20 	dc	civac, x0
 4027254:	8b020000 	add	x0, x0, x2
 4027258:	eb01001f 	cmp	x0, x1
 402725c:	54ffffa3 	b.cc	4027250 <loop_civac>
 4027260:	d5033f9f 	dsb	sy
 4027264:	d65f03c0 	ret

0000000004027268 <clean_dcache_range>:
 4027268:	d53b0023 	mrs	x3, ctr_el0
 402726c:	d3504c63 	ubfx	x3, x3, #16, #4
 4027270:	d2800082 	mov	x2, #0x4                   	// #4
 4027274:	9ac32042 	lsl	x2, x2, x3
 4027278:	8b010001 	add	x1, x0, x1
 402727c:	d1000443 	sub	x3, x2, #0x1
 4027280:	8a230000 	bic	x0, x0, x3

0000000004027284 <loop_cvac>:
 4027284:	d50b7a20 	dc	cvac, x0
 4027288:	8b020000 	add	x0, x0, x2
 402728c:	eb01001f 	cmp	x0, x1
 4027290:	54ffffa3 	b.cc	4027284 <loop_cvac>
 4027294:	d5033f9f 	dsb	sy
 4027298:	d65f03c0 	ret

000000000402729c <inv_dcache_range>:
 402729c:	d53b0023 	mrs	x3, ctr_el0
 40272a0:	d3504c63 	ubfx	x3, x3, #16, #4
 40272a4:	d2800082 	mov	x2, #0x4                   	// #4
 40272a8:	9ac32042 	lsl	x2, x2, x3
 40272ac:	8b010001 	add	x1, x0, x1
 40272b0:	d1000443 	sub	x3, x2, #0x1
 40272b4:	8a230000 	bic	x0, x0, x3

00000000040272b8 <loop_ivac>:
 40272b8:	d5087620 	dc	ivac, x0
 40272bc:	8b020000 	add	x0, x0, x2
 40272c0:	eb01001f 	cmp	x0, x1
 40272c4:	54ffffa3 	b.cc	40272b8 <loop_ivac>
 40272c8:	d5033f9f 	dsb	sy
 40272cc:	d65f03c0 	ret

00000000040272d0 <do_dcsw_op>:
 40272d0:	b40003c3 	cbz	x3, 4027348 <exit>
 40272d4:	100003ce 	adr	x14, 402734c <dcsw_loop_table>
 40272d8:	8b0015ce 	add	x14, x14, x0, lsl #5
 40272dc:	aa0903e0 	mov	x0, x9
 40272e0:	52800028 	mov	w8, #0x1                   	// #1

00000000040272e4 <loop1>:
 40272e4:	8b4a0542 	add	x2, x10, x10, lsr #1
 40272e8:	9ac22401 	lsr	x1, x0, x2
 40272ec:	92400821 	and	x1, x1, #0x7
 40272f0:	f100083f 	cmp	x1, #0x2
 40272f4:	540001eb 	b.lt	4027330 <level_done>
 40272f8:	d51a000a 	msr	csselr_el1, x10
 40272fc:	d5033fdf 	isb
 4027300:	d5390001 	mrs	x1, ccsidr_el1
 4027304:	92400822 	and	x2, x1, #0x7
 4027308:	91001042 	add	x2, x2, #0x4
 402730c:	d3433024 	ubfx	x4, x1, #3, #10
 4027310:	5ac01085 	clz	w5, w4
 4027314:	1ac52089 	lsl	w9, w4, w5
 4027318:	1ac52110 	lsl	w16, w8, w5
 402731c:	2a090149 	orr	w9, w10, w9
 4027320:	530d6c26 	ubfx	w6, w1, #13, #15
 4027324:	1ac22111 	lsl	w17, w8, w2
 4027328:	d5033f9f 	dsb	sy
 402732c:	d61f01c0 	br	x14

0000000004027330 <level_done>:
 4027330:	9100094a 	add	x10, x10, #0x2
 4027334:	eb0a007f 	cmp	x3, x10
 4027338:	54fffd6c 	b.gt	40272e4 <loop1>
 402733c:	d51a001f 	msr	csselr_el1, xzr
 4027340:	d5033f9f 	dsb	sy
 4027344:	d5033fdf 	isb

0000000004027348 <exit>:
 4027348:	d65f03c0 	ret

000000000402734c <dcsw_loop_table>:
 402734c:	1ac220c7 	lsl	w7, w6, w2

0000000004027350 <loop3_isw>:
 4027350:	2a07012b 	orr	w11, w9, w7
 4027354:	d508764b 	dc	isw, x11
 4027358:	6b1100e7 	subs	w7, w7, w17
 402735c:	54ffffaa 	b.ge	4027350 <loop3_isw>
 4027360:	eb100129 	subs	x9, x9, x16
 4027364:	54ffff4a 	b.ge	402734c <dcsw_loop_table>
 4027368:	17fffff2 	b	4027330 <level_done>

000000000402736c <loop2_cisw>:
 402736c:	1ac220c7 	lsl	w7, w6, w2

0000000004027370 <loop3_cisw>:
 4027370:	2a07012b 	orr	w11, w9, w7
 4027374:	d5087e4b 	dc	cisw, x11
 4027378:	6b1100e7 	subs	w7, w7, w17
 402737c:	54ffffaa 	b.ge	4027370 <loop3_cisw>
 4027380:	eb100129 	subs	x9, x9, x16
 4027384:	54ffff4a 	b.ge	402736c <loop2_cisw>
 4027388:	17ffffea 	b	4027330 <level_done>

000000000402738c <loop2_csw>:
 402738c:	1ac220c7 	lsl	w7, w6, w2

0000000004027390 <loop3_csw>:
 4027390:	2a07012b 	orr	w11, w9, w7
 4027394:	d5087a4b 	dc	csw, x11
 4027398:	6b1100e7 	subs	w7, w7, w17
 402739c:	54ffffaa 	b.ge	4027390 <loop3_csw>
 40273a0:	eb100129 	subs	x9, x9, x16
 40273a4:	54ffff4a 	b.ge	402738c <loop2_csw>
 40273a8:	17ffffe2 	b	4027330 <level_done>

00000000040273ac <dcsw_op_level1>:
 40273ac:	d5390029 	mrs	x9, clidr_el1
 40273b0:	d2800043 	mov	x3, #0x2                   	// #2
 40273b4:	d100086a 	sub	x10, x3, #0x2
 40273b8:	17ffffc6 	b	40272d0 <do_dcsw_op>

00000000040273bc <dcsw_op_level2>:
 40273bc:	d5390029 	mrs	x9, clidr_el1
 40273c0:	d2800083 	mov	x3, #0x4                   	// #4
 40273c4:	d100086a 	sub	x10, x3, #0x2
 40273c8:	17ffffc2 	b	40272d0 <do_dcsw_op>

00000000040273cc <zeromem16>:
 40273cc:	f2400c1f 	tst	x0, #0xf
 40273d0:	54000080 	b.eq	40273e0 <zeromem16+0x14>
 40273d4:	5000de60 	adr	x0, 4028fa2 <panic_msg+0x11>
 40273d8:	d2800b01 	mov	x1, #0x58                  	// #88
 40273dc:	17ffff5f 	b	4027158 <asm_assert>
 40273e0:	8b010002 	add	x2, x0, x1

00000000040273e4 <z_loop16>:
 40273e4:	cb000043 	sub	x3, x2, x0
 40273e8:	f100407f 	cmp	x3, #0x10
 40273ec:	5400006b 	b.lt	40273f8 <z_loop1>
 40273f0:	a8817c1f 	stp	xzr, xzr, [x0],#16
 40273f4:	17fffffc 	b	40273e4 <z_loop16>

00000000040273f8 <z_loop1>:
 40273f8:	eb02001f 	cmp	x0, x2
 40273fc:	54000060 	b.eq	4027408 <z_end>
 4027400:	3800141f 	strb	wzr, [x0],#1
 4027404:	17fffffd 	b	40273f8 <z_loop1>

0000000004027408 <z_end>:
 4027408:	d65f03c0 	ret

000000000402740c <plat_reset_handler>:
 402740c:	d65f03c0 	ret

0000000004027410 <plat_disable_acp>:
 4027410:	d65f03c0 	ret

0000000004027414 <console_init>:
 4027414:	b4000080 	cbz	x0, 4027424 <init_fail>
 4027418:	f0000003 	adrp	x3, 402a000 <__RO_END_UNALIGNED__>
 402741c:	f9016060 	str	x0, [x3,#704]
 4027420:	14000005 	b	4027434 <console_core_init>

0000000004027424 <init_fail>:
 4027424:	d65f03c0 	ret

0000000004027428 <console_putc>:
 4027428:	f0000002 	adrp	x2, 402a000 <__RO_END_UNALIGNED__>
 402742c:	f9416041 	ldr	x1, [x2,#704]
 4027430:	1400001a 	b	4027498 <console_core_putc>

0000000004027434 <console_core_init>:
 4027434:	b40002e0 	cbz	x0, 4027490 <init_fail>
 4027438:	340002c1 	cbz	w1, 4027490 <init_fail>
 402743c:	340002a2 	cbz	w2, 4027490 <init_fail>
 4027440:	531c6c42 	lsl	w2, w2, #4
 4027444:	1ac20822 	udiv	w2, w1, w2
 4027448:	12002442 	and	w2, w2, #0x3ff
 402744c:	b9401003 	ldr	w3, [x0,#16]
 4027450:	12165463 	and	w3, w3, #0xfffffc00
 4027454:	2a020063 	orr	w3, w3, w2
 4027458:	b9001003 	str	w3, [x0,#16]
 402745c:	52800003 	mov	w3, #0x0                   	// #0
 4027460:	b9001403 	str	w3, [x0,#20]
 4027464:	52880003 	mov	w3, #0x4000                	// #16384
 4027468:	32110063 	orr	w3, w3, #0x8000
 402746c:	b9000803 	str	w3, [x0,#8]
 4027470:	5280fa02 	mov	w2, #0x7d0                 	// #2000
 4027474:	51000442 	sub	w2, w2, #0x1
 4027478:	7100005f 	cmp	w2, #0x0
 402747c:	54ffffc1 	b.ne	4027474 <console_core_init+0x40>
 4027480:	52800003 	mov	w3, #0x0                   	// #0
 4027484:	b9000803 	str	w3, [x0,#8]
 4027488:	52800020 	mov	w0, #0x1                   	// #1
 402748c:	d65f03c0 	ret

0000000004027490 <init_fail>:
 4027490:	52800000 	mov	w0, #0x0                   	// #0
 4027494:	d65f03c0 	ret

0000000004027498 <console_core_putc>:
 4027498:	b40001e1 	cbz	x1, 40274d4 <putc_error>
 402749c:	7100281f 	cmp	w0, #0xa
 40274a0:	540000e1 	b.ne	40274bc <console_core_putc+0x24>
 40274a4:	b9400c22 	ldr	w2, [x1,#12]
 40274a8:	12150042 	and	w2, w2, #0x800
 40274ac:	7120005f 	cmp	w2, #0x800
 40274b0:	54ffffa0 	b.eq	40274a4 <console_core_putc+0xc>
 40274b4:	528001a2 	mov	w2, #0xd                   	// #13
 40274b8:	b9000422 	str	w2, [x1,#4]
 40274bc:	b9400c22 	ldr	w2, [x1,#12]
 40274c0:	12150042 	and	w2, w2, #0x800
 40274c4:	7120005f 	cmp	w2, #0x800
 40274c8:	54ffffa0 	b.eq	40274bc <console_core_putc+0x24>
 40274cc:	b9000420 	str	w0, [x1,#4]
 40274d0:	d65f03c0 	ret

00000000040274d4 <putc_error>:
 40274d4:	12800000 	mov	w0, #0xffffffff            	// #-1
 40274d8:	d65f03c0 	ret

00000000040274dc <plat_my_core_pos>:
 40274dc:	d53800a0 	mrs	x0, mpidr_el1
 40274e0:	14000001 	b	40274e4 <plat_arm_calc_core_pos>

00000000040274e4 <plat_arm_calc_core_pos>:
 40274e4:	92401c01 	and	x1, x0, #0xff
 40274e8:	92781c00 	and	x0, x0, #0xff00
 40274ec:	8b401820 	add	x0, x1, x0, lsr #6
 40274f0:	d65f03c0 	ret

00000000040274f4 <plat_crash_console_init>:
 40274f4:	d2840000 	mov	x0, #0x2000                	// #8192
 40274f8:	f2ba0020 	movk	x0, #0xd001, lsl #16
 40274fc:	d2980001 	mov	x1, #0xc000                	// #49152
 4027500:	f2a03121 	movk	x1, #0x189, lsl #16
 4027504:	d2984002 	mov	x2, #0xc200                	// #49664
 4027508:	f2a00022 	movk	x2, #0x1, lsl #16
 402750c:	17ffffca 	b	4027434 <console_core_init>

0000000004027510 <plat_crash_console_putc>:
 4027510:	d2840001 	mov	x1, #0x2000                	// #8192
 4027514:	f2ba0021 	movk	x1, #0xd001, lsl #16
 4027518:	17ffffe0 	b	4027498 <console_core_putc>
 402751c:	00000000 	.inst	0x00000000 ; undefined

0000000004027520 <version_string>:
 4027520:	322e3176 62656428 3a296775 65766564     v1.2(debug):deve
 4027530:	36312d6c 2e37302e 00000030 00000000     l-16.07.0.......

0000000004027540 <build_message>:
 4027540:	6c697542 203a2074 313a3931 36353a34     Built : 19:14:56
 4027550:	7541202c 31332067 31303220 00000036     , Aug 31 2016...

0000000004027560 <plat_arm_psci_pm_ops>:
 4027560:	040230d0 00000000 04023160 00000000     .0......`1......
 4027570:	040230e8 00000000 04023100 00000000     .0.......1......
 4027580:	04023118 00000000 04023130 00000000     .1......01......
 4027590:	04023148 00000000 04023190 00000000     H1.......1......
 40275a0:	040230b8 00000000 04023178 00000000     .0......x1......
	...
 40275b8:	4f525245 20203a52 37336120 765f3030     ERROR:   a3700_v
 40275c8:	64696c61 5f657461 65776f70 74735f72     alidate_power_st
 40275d8:	20657461 6465656e 6f742073 20656220     ate needs to be 
 40275e8:	6c706d69 6e656d65 0a646574 52524500     implemented..ERR
 40275f8:	203a524f 33612020 5f303037 5f757063     OR:   a3700_cpu_
 4027608:	6e617473 20796264 6465656e 6f742073     standby needs to
 4027618:	20656220 6c706d69 6e656d65 0a646574      be implemented.
 4027628:	52524500 203a524f 33612020 5f303037     .ERROR:   a3700_
 4027638:	5f727770 616d6f64 6f5f6e69 6e206666     pwr_domain_off n
 4027648:	73646565 206f7420 69206562 656c706d     eeds to be imple
 4027658:	746e656d 000a6465 4f525245 20203a52     mented..ERROR:  
 4027668:	37336120 705f3030 645f7277 69616d6f      a3700_pwr_domai
 4027678:	75735f6e 6e657073 656e2064 20736465     n_suspend needs 
 4027688:	62206f74 6d692065 6d656c70 65746e65     to be implemente
 4027698:	45000a64 524f5252 2020203a 30373361     d..ERROR:   a370
 40276a8:	77705f30 6f645f72 6e69616d 5f6e6f5f     0_pwr_domain_on_
 40276b8:	696e6966 6e206873 73646565 206f7420     finish needs to 
 40276c8:	69206562 656c706d 746e656d 000a6465     be implemented..
 40276d8:	4f525245 20203a52 37336120 705f3030     ERROR:   a3700_p
 40276e8:	645f7277 69616d6f 75735f6e 6e657073     wr_domain_suspen
 40276f8:	69665f64 6873696e 65656e20 74207364     d_finish needs t
 4027708:	6562206f 706d6920 656d656c 6465746e     o be implemented
 4027718:	5245000a 3a524f52 61202020 30303733     ..ERROR:   a3700
 4027728:	7379735f 5f6d6574 2066666f 6465656e     _system_off need
 4027738:	6f742073 20656220 6c706d69 6e656d65     s to be implemen
 4027748:	0a646574 00000000                       ted.....

0000000004027750 <arm_power_domain_tree_desc>:
 4027750:	00000202 00000000                       ........

0000000004027758 <g0_interrupt_array>:
 4027758:	0000001d 00000009 0000000a 0000000b     ................
 4027768:	0000000c 0000000d 0000000f 00000000     ................

0000000004027778 <g1s_interrupt_array>:
 4027778:	00000008 0000000e                       ........

0000000004027780 <marvell_gic_data>:
 4027780:	d1d00000 00000000 d1d40000 00000000     ................
 4027790:	00000007 00000002 04027758 00000000     ........Xw......
 40277a0:	04027778 00000000 00000002 00000000     xw..............
 40277b0:	0402b080 00000000 040274e4 00000000     .........t......

00000000040277c0 <plat_timer_ops>:
 40277c0:	040232dc 00000000 00000001 0000000c     .2..............
 40277d0:	2073706f 30203d21 20262620 73706f28     ops != 0 && (ops
 40277e0:	6c633e2d 756d5f6b 2120746c 2930203d     ->clk_mult != 0)
 40277f0:	20262620 73706f28 6c633e2d 69645f6b      && (ops->clk_di
 4027800:	3d212076 20293020 28202626 2d73706f     v != 0) && (ops-
 4027810:	7465673e 6d69745f 765f7265 65756c61     >get_timer_value
 4027820:	203d2120 64002930 65766972 642f7372      != 0).drivers/d
 4027830:	79616c65 6d69745f 642f7265 79616c65     elay_timer/delay
 4027840:	6d69745f 632e7265 73706f00 7274705f     _timer.c.ops_ptr
 4027850:	203d2120 26262030 706f2820 74705f73      != 0 && (ops_pt
 4027860:	633e2d72 6d5f6b6c 20746c75 30203d21     r->clk_mult != 0
 4027870:	26262029 706f2820 74705f73 633e2d72     ) && (ops_ptr->c
 4027880:	645f6b6c 21207669 2930203d 20262620     lk_div != 0) && 
 4027890:	73706f28 7274705f 65673e2d 69745f74     (ops_ptr->get_ti
 40278a0:	5f72656d 756c6176 3d212065 00293020     mer_value != 0).

00000000040278b0 <__func__.1257>:
 40278b0:	6c656475 00007961                       udelay..

00000000040278b8 <__func__.1270>:
 40278b8:	656d6974 6e695f72 00007469 00000000     timer_init......

00000000040278c8 <__func__.2165>:
 40278c8:	76636967 65675f33 65705f74 6e69646e     gicv3_get_pendin
 40278d8:	6e695f67 72726574 5f747075 65707974     g_interrupt_type
	...

00000000040278f0 <__func__.2144>:
 40278f0:	76636967 64725f33 69747369 6e695f66     gicv3_rdistif_in
 4027900:	70007469 5f74616c 76697264 645f7265     it.plat_driver_d
 4027910:	00617461 76697264 2f737265 2f6d7261     ata.drivers/arm/
 4027920:	2f636967 672f3376 33766369 69616d5f     gic/v3/gicv3_mai
 4027930:	00632e6e 74616c70 6972645f 5f726576     n.c.plat_driver_
 4027940:	61746164 69673e2d 625f6463 00657361     data->gicd_base.
 4027950:	74616c70 6972645f 5f726576 61746164     plat_driver_data
 4027960:	69673e2d 625f7263 00657361 74616c70     ->gicr_base.plat
 4027970:	6972645f 5f726576 61746164 64723e2d     _driver_data->rd
 4027980:	69747369 756e5f66 6c70006d 645f7461     istif_num.plat_d
 4027990:	65766972 61645f72 3e2d6174 73696472     river_data->rdis
 40279a0:	5f666974 65736162 6464615f 49007372     tif_base_addrs.I
 40279b0:	4e495f53 334c455f 70002928 5f74616c     S_IN_EL3().plat_
 40279c0:	76697264 645f7265 2d617461 5f30673e     driver_data->g0_
 40279d0:	65746e69 70757272 72615f74 20796172     interrupt_array 
 40279e0:	70207c7c 5f74616c 76697264 645f7265     || plat_driver_d
 40279f0:	2d617461 7331673e 746e695f 75727265     ata->g1s_interru
 4027a00:	615f7470 79617272 616c7000 72645f74     pt_array.plat_dr
 4027a10:	72657669 7461645f 673e2d61 6e695f30     iver_data->g0_in
 4027a20:	72726574 5f747075 61727261 203f2079     terrupt_array ? 
 4027a30:	74616c70 6972645f 5f726576 61746164     plat_driver_data
 4027a40:	30673e2d 746e695f 75727265 6e5f7470     ->g0_interrupt_n
 4027a50:	3a206d75 616c7020 72645f74 72657669     um : plat_driver
 4027a60:	7461645f 673e2d61 6e695f30 72726574     _data->g0_interr
 4027a70:	5f747075 206d756e 30203d3d 616c7000     upt_num == 0.pla
 4027a80:	72645f74 72657669 7461645f 673e2d61     t_driver_data->g
 4027a90:	695f7331 7265746e 74707572 7272615f     1s_interrupt_arr
 4027aa0:	3f207961 616c7020 72645f74 72657669     ay ? plat_driver
 4027ab0:	7461645f 673e2d61 695f7331 7265746e     _data->g1s_inter
 4027ac0:	74707572 6d756e5f 70203a20 5f74616c     rupt_num : plat_
 4027ad0:	76697264 645f7265 2d617461 7331673e     driver_data->g1s
 4027ae0:	746e695f 75727265 6e5f7470 3d206d75     _interrupt_num =
 4027af0:	0030203d 64616572 5f64695f 34366161     = 0.read_id_aa64
 4027b00:	30726670 316c655f 26202928 44492820     pfr0_el1() & (ID
 4027b10:	3641415f 52465034 49475f30 414d5f43     _AA64PFR0_GIC_MA
 4027b20:	3c204b53 4449203c 3641415f 52465034     SK << ID_AA64PFR
 4027b30:	49475f30 48535f43 29544649 63696700     0_GIC_SHIFT).gic
 4027b40:	7265765f 6e6f6973 203d3d20 48435241     _version == ARCH
 4027b50:	5645525f 4349475f 64003356 65766972     _REV_GICV3.drive
 4027b60:	61645f72 3e2d6174 695f3067 7265746e     r_data->g0_inter
 4027b70:	74707572 7272615f 70007961 5f636f72     rupt_array.proc_
 4027b80:	206d756e 7264203c 72657669 7461645f     num < driver_dat
 4027b90:	723e2d61 74736964 6e5f6669 67006d75     a->rdistif_num.g
 4027ba0:	5f646369 64616572 6c74635f 72642872     icd_read_ctlr(dr
 4027bb0:	72657669 7461645f 673e2d61 5f646369     iver_data->gicd_
 4027bc0:	65736162 20262029 524c5443 4552415f     base) & CTLR_ARE
 4027bd0:	425f535f 69005449 203c2064 444e4550     _S_BIT.id < PEND
 4027be0:	5f474e49 5f533147 49544e49 7c7c2044     ING_G1S_INTID ||
 4027bf0:	20646920 4d203d3e 4c5f4e49 495f4950      id >= MIN_LPI_I
 4027c00:	00000044 00000000                       D.......

0000000004027c08 <__func__.2135>:
 4027c08:	76636967 72645f33 72657669 696e695f     gicv3_driver_ini
 4027c18:	00000074 00000000                       t.......

0000000004027c20 <__func__.2139>:
 4027c20:	76636967 69645f33 66697473 696e695f     gicv3_distif_ini
 4027c30:	00000074 00000000                       t.......

0000000004027c38 <__func__.2151>:
 4027c38:	76636967 70635f33 5f666975 62616e65     gicv3_cpuif_enab
 4027c48:	0000656c 00000000                       le......

0000000004027c50 <__func__.2213>:
 4027c50:	76636967 64725f33 69747369 616d5f66     gicv3_rdistif_ma
 4027c60:	635f6b72 5f65726f 6b617761 00000065     rk_core_awake...

0000000004027c70 <__func__.2280>:
 4027c70:	76636967 65735f33 65727563 6970705f     gicv3_secure_ppi
 4027c80:	6967735f 6e6f635f 75676966 00006572     _sgi_configure..

0000000004027c90 <__func__.2233>:
 4027c90:	76636967 64725f33 69747369 61625f66     gicv3_rdistif_ba
 4027ca0:	615f6573 73726464 6f72705f 67006562     se_addrs_probe.g
 4027cb0:	5f726369 64616572 6b61775f 67287265     icr_read_waker(g
 4027cc0:	5f726369 65736162 20262029 454b4157     icr_base) & WAKE
 4027cd0:	41435f52 5449425f 69726400 73726576     R_CA_BIT.drivers
 4027ce0:	6d72612f 6369672f 2f33762f 76636967     /arm/gic/v3/gicv
 4027cf0:	65685f33 7265706c 00632e73 636f7270     3_helpers.c.proc
 4027d00:	6d756e5f 72203c20 74736964 6e5f6669     _num < rdistif_n
 4027d10:	28006d75 5f746e69 20707267 49203d3d     um.(int_grp == I
 4027d20:	5f52544e 554f5247 29533150 207c7c20     NTR_GROUP1S) || 
 4027d30:	746e6928 7072675f 203d3d20 52544e49     (int_grp == INTR
 4027d40:	4f52475f 29305055 6d756e00 746e695f     _GROUP0).num_int
 4027d50:	203f2073 6e697528 72747074 7329745f     s ? (uintptr_t)s
 4027d60:	695f6365 5f72746e 7473696c 31203a20     ec_intr_list : 1
	...

0000000004027d78 <__func__.2259>:
 4027d78:	76636967 65735f33 65727563 6970735f     gicv3_secure_spi
 4027d88:	6f635f73 6769666e 00657275 00000000     s_configure.....

0000000004027d98 <CSWTCH.6>:
 4027d98:	03010200 74616c70 6d6f632f 2f6e6f6d     ....plat/common/
 4027da8:	74616c70 6369675f 632e3376 70797400     plat_gicv3.c.typ
 4027db8:	3d3d2065 544e4920 59545f52 535f4550     e == INTR_TYPE_S
 4027dc8:	314c455f 207c7c20 65707974 203d3d20     _EL1 || type == 
 4027dd8:	52544e49 5059545f 4c455f45 7c7c2033     INTR_TYPE_EL3 ||
 4027de8:	70797420 3d3d2065 544e4920 59545f52      type == INTR_TY
 4027df8:	4e5f4550 65730053 74735f63 5f657461     PE_NS.sec_state_
 4027e08:	765f7369 64696c61 63657328 74697275     is_valid(securit
 4027e18:	74735f79 29657461 00000000 00000000     y_state)........

0000000004027e28 <__func__.2428>:
 4027e28:	74616c70 5f63695f 5f746567 646e6570     plat_ic_get_pend
 4027e38:	5f676e69 65746e69 70757272 79745f74     ing_interrupt_ty
 4027e48:	73006570 735f6365 65746174 5f73695f     pe.sec_state_is_
 4027e58:	696c6176 79742864 00296570 74616c70     valid(type).plat
 4027e68:	72616d2f 6c6c6576 6d6f632f 2f6e6f6d     /marvell/common/
 4027e78:	7672616d 5f6c6c65 31336c62 7465735f     marvell_bl31_set
 4027e88:	632e7075 6f726600 6c625f6d 3d212032     up.c.from_bl2 !=
 4027e98:	4c554e20 7266004c 625f6d6f 3e2d326c      NULL.from_bl2->
 4027ea8:	79742e68 3d206570 4150203d 5f4d4152     h.type == PARAM_
 4027eb8:	31334c42 6f726600 6c625f6d 683e2d32     BL31.from_bl2->h
 4027ec8:	7265762e 6e6f6973 203d3e20 53524556     .version >= VERS
 4027ed8:	5f4e4f49 28280031 69736e75 64656e67     ION_1.((unsigned
 4027ee8:	6e6f6c20 6f6c2067 7029676e 5f74616c      long long)plat_
 4027ef8:	61726170 665f736d 5f6d6f72 29326c62     params_from_bl2)
 4027f08:	203d3d20 5652414d 5f4c4c45 31334c42      == MARVELL_BL31
 4027f18:	414c505f 41505f54 5f4d4152 004c4156     _PLAT_PARAM_VAL.

0000000004027f28 <__func__.2322>:
 4027f28:	7672616d 5f6c6c65 31336c62 7261655f     marvell_bl31_ear
 4027f38:	705f796c 6674616c 5f6d726f 75746573     ly_platform_setu
 4027f48:	00000070 00000000                       p.......

0000000004027f50 <__func__.2317>:
 4027f50:	31336c62 616c705f 65675f74 656e5f74     bl31_plat_get_ne
 4027f60:	695f7478 6567616d 5f70655f 6f666e69     xt_image_ep_info
	...

0000000004027f78 <__func__.1552>:
 4027f78:	74616c70 7465675f 7261745f 5f746567     plat_get_target_
 4027f88:	5f727770 74617473 636e0065 70007570     pwr_state.ncpu.p
 4027f98:	2f74616c 6d6d6f63 612f6e6f 68637261     lat/common/aarch
 4027fa8:	702f3436 5f74616c 69637370 6d6f635f     64/plat_psci_com
 4027fb8:	2e6e6f6d 00000063                       mon.c...

0000000004027fc0 <__func__.2394>:
 4027fc0:	31336c62 6572705f 65726170 78656e5f     bl31_prepare_nex
 4027fd0:	6d695f74 5f656761 72746e65 6c620079     t_image_entry.bl
 4027fe0:	622f3133 5f31336c 6e69616d 6e00632e     31/bl31_main.c.n
 4027ff0:	5f747865 67616d69 6e695f65 69006f66     ext_image_info.i
 4028000:	6567616d 7079745f 3d3d2065 54454720     mage_type == GET
 4028010:	4345535f 54495255 54535f59 28455441     _SECURITY_STATE(
 4028020:	7478656e 616d695f 695f6567 2d6f666e     next_image_info-
 4028030:	612e683e 29727474 544f4e00 3a454349     >h.attr).NOTICE:
 4028040:	4c422020 203a3133 000a7325 4f525245       BL31: %s..ERRO
 4028050:	20203a52 72724520 6920726f 6974696e     R:   Error initi
 4028060:	7a696c61 20676e69 746e7572 20656d69     alizing runtime 
 4028070:	76726573 20656369 000a7325 4f525245     service %s..ERRO
 4028080:	20203a52 766e4920 64696c61 6e757220     R:   Invalid run
 4028090:	656d6974 72657320 65636976 73656420     time service des
 40280a0:	70697263 20726f74 6c257830 25282078     criptor 0x%lx (%
 40280b0:	000a2973 31336c62 746e692f 75727265     s)..bl31/interru
 40280c0:	6d5f7470 2e746d67 6e690063 745f7274     pt_mgmt.c.intr_t
 40280d0:	5f657079 63736564 79745b73 2e5d6570     ype_descs[type].
 40280e0:	646e6168 0072656c                       handler.

00000000040280e8 <__func__.1643>:
 40280e8:	5f746567 5f726373 5f336c65 6d6f7266     get_scr_el3_from
 40280f8:	756f725f 676e6974 646f6d5f 00006c65     _routing_model..

0000000004028108 <__func__.2327>:
 4028108:	675f6d63 635f7465 65746e6f 00007478     cm_get_context..

0000000004028118 <__func__.2337>:
 4028118:	675f6d63 635f7465 65746e6f 625f7478     cm_get_context_b
 4028128:	6e695f79 00786564                       y_index.

0000000004028130 <__func__.2343>:
