
build/a3700_z/debug/bl1/bl1.elf:     file format elf64-littleaarch64
build/a3700_z/debug/bl1/bl1.elf
architecture: aarch64, flags 0x00000112:
EXEC_P, HAS_SYMS, D_PAGED
start address 0x0000000004100000

Program Header:
    LOAD off    0x0000000000000000 vaddr 0x0000000004030000 paddr 0x0000000004030000 align 2**16
         filesz 0x0000000000000120 memsz 0x000000000000f000 flags rw-
    LOAD off    0x0000000000010000 vaddr 0x0000000004100000 paddr 0x0000000004100000 align 2**16
         filesz 0x0000000000003f8c memsz 0x0000000000003f8c flags r-x
    LOAD off    0x000000000001a000 vaddr 0x000000000403a000 paddr 0x0000000004103f90 align 2**16
         filesz 0x0000000000000008 memsz 0x0000000000000008 flags rw-
   STACK off    0x0000000000000000 vaddr 0x0000000000000000 paddr 0x0000000000000000 align 2**4
         filesz 0x0000000000000000 memsz 0x0000000000000000 flags rw-
private flags = 0:

Sections:
Idx Name          Size      VMA               LMA               File off  Algn
  0 ro            00003f8c  0000000004100000  0000000004100000  00010000  2**11
                  CONTENTS, ALLOC, LOAD, READONLY, CODE
  1 .data         00000008  000000000403a000  0000000004103f90  0001a000  2**4
                  CONTENTS, ALLOC, LOAD, DATA
  2 stacks        00000478  000000000403a008  000000000403a008  0000a008  2**6
                  ALLOC
  3 .bss          00000728  000000000403a480  000000000403a480  0000a008  2**5
                  ALLOC
  4 xlat_table    00004000  000000000403b000  000000000403b000  0000a008  2**12
                  ALLOC
  5 .debug_info   0000a2e5  0000000000000000  0000000000000000  0001a008  2**0
                  CONTENTS, READONLY, DEBUGGING
  6 .debug_abbrev 00002301  0000000000000000  0000000000000000  000242ed  2**0
                  CONTENTS, READONLY, DEBUGGING
  7 .debug_aranges 00000f70  0000000000000000  0000000000000000  000265f0  2**4
                  CONTENTS, READONLY, DEBUGGING
  8 .debug_line   00003294  0000000000000000  0000000000000000  00027560  2**0
                  CONTENTS, READONLY, DEBUGGING
  9 .debug_str    000017fa  0000000000000000  0000000000000000  0002a7f4  2**0
                  CONTENTS, READONLY, DEBUGGING
 10 .comment      0000003c  0000000000000000  0000000000000000  0002bfee  2**0
                  CONTENTS, READONLY
 11 .debug_loc    0000c3c5  0000000000000000  0000000000000000  0002c02a  2**0
                  CONTENTS, READONLY, DEBUGGING
 12 .debug_ranges 00001420  0000000000000000  0000000000000000  000383f0  2**4
                  CONTENTS, READONLY, DEBUGGING
 13 .debug_frame  000013a8  0000000000000000  0000000000000000  00039810  2**3
                  CONTENTS, READONLY, DEBUGGING
SYMBOL TABLE:
0000000004100000 l    d  ro	0000000000000000 ro
000000000403a000 l    d  .data	0000000000000000 .data
000000000403a008 l    d  stacks	0000000000000000 stacks
000000000403a480 l    d  .bss	0000000000000000 .bss
000000000403b000 l    d  xlat_table	0000000000000000 xlat_table
0000000000000000 l    d  .debug_info	0000000000000000 .debug_info
0000000000000000 l    d  .debug_abbrev	0000000000000000 .debug_abbrev
0000000000000000 l    d  .debug_aranges	0000000000000000 .debug_aranges
0000000000000000 l    d  .debug_line	0000000000000000 .debug_line
0000000000000000 l    d  .debug_str	0000000000000000 .debug_str
0000000000000000 l    d  .comment	0000000000000000 .comment
0000000000000000 l    d  .debug_loc	0000000000000000 .debug_loc
0000000000000000 l    d  .debug_ranges	0000000000000000 .debug_ranges
0000000000000000 l    d  .debug_frame	0000000000000000 .debug_frame
0000000000000000 l    df *ABS*	0000000000000000 ./build/a3700_z/debug/bl1/bl1_entrypoint.o
000000000410001c l       ro	0000000000000000 do_cold_boot
000000000410002c l       ro	0000000000000000 do_primary_cold_boot
0000000004100028 l       ro	0000000000000000 secondary_panic
0000000000000000 l    df *ABS*	0000000000000000 io_fip.c
00000000041000d0 l     F ro	0000000000000018 fip_dev_close
00000000041000e8 l     F ro	000000000000009c fip_dev_init
0000000004100184 l     F ro	0000000000000040 fip_file_close
00000000041001c4 l     F ro	0000000000000120 fip_file_read
00000000041002e4 l     F ro	0000000000000040 fip_dev_open
0000000004100324 l     F ro	0000000000000058 fip_file_len
000000000410037c l     F ro	0000000000000124 fip_file_open
0000000004102850 l     O ro	0000000000000010 fip_dev_info
0000000004102988 l     O ro	0000000000000048 fip_dev_funcs
0000000004102860 l     O ro	000000000000000e __func__.1781
0000000004102870 l     O ro	0000000000000008 fip_dev_connector
0000000004102878 l     O ro	000000000000000d __func__.1790
0000000004102888 l     O ro	0000000000000010 uuid_null
000000000403a480 l     O .bss	0000000000000008 backend_image_spec
000000000403a488 l     O .bss	0000000000000030 current_file
000000000403a4b8 l     O .bss	0000000000000008 backend_dev_handle
0000000004102950 l     O ro	000000000000000e __func__.1802
0000000004102960 l     O ro	000000000000000d __func__.1757
0000000004102970 l     O ro	0000000000000014 __func__.1812
0000000000000000 l    df *ABS*	0000000000000000 io_memmap.c
0000000004100504 l     F ro	0000000000000008 memmap_dev_close
000000000410050c l     F ro	0000000000000040 memmap_dev_open
000000000410054c l     F ro	000000000000004c memmap_block_seek
0000000004100598 l     F ro	0000000000000078 memmap_block_open
0000000004100610 l     F ro	0000000000000050 memmap_block_close
0000000004100660 l     F ro	0000000000000098 memmap_block_write
00000000041006f8 l     F ro	00000000000000a0 memmap_block_read
00000000041029d0 l     O ro	0000000000000010 memmap_dev_info
0000000004102a78 l     O ro	0000000000000048 memmap_dev_funcs
00000000041029e0 l     O ro	0000000000000012 __func__.1445
00000000041029f8 l     O ro	0000000000000012 __func__.1452
0000000004102a10 l     O ro	0000000000000012 __func__.1460
000000000403a4c0 l     O .bss	0000000000000018 current_file
0000000004102a28 l     O ro	0000000000000008 memmap_dev_connector
0000000004102ac0 l     O ro	0000000000000013 __func__.1472
0000000004102ad8 l     O ro	0000000000000013 __func__.1468
0000000004102af0 l     O ro	0000000000000017 __func__.1477
0000000004102b08 l     O ro	0000000000000010 __func__.1434
0000000000000000 l    df *ABS*	0000000000000000 io_storage.c
00000000041007f4 l     F ro	0000000000000040 is_valid_dev
0000000004100834 l     F ro	000000000000002c is_valid_entity
0000000004100860 l     F ro	0000000000000074 free_entity
000000000403a4d8 l     O .bss	0000000000000004 entity_count
000000000403a4dc l     O .bss	0000000000000004 dev_count
0000000004102b18 l     O ro	0000000000000008 __func__.1449
0000000004102b20 l     O ro	0000000000000010 __func__.1401
0000000004102b30 l     O ro	0000000000000013 __func__.1413
0000000004102b48 l     O ro	000000000000000d __func__.1432
000000000403a4e0 l     O .bss	0000000000000020 entity_map
0000000004102cd0 l     O ro	000000000000000c __func__.1408
000000000403a500 l     O .bss	0000000000000040 entity_pool
0000000004102ce0 l     O ro	000000000000000c __func__.1420
0000000004102cf0 l     O ro	0000000000000008 __func__.1457
0000000004102cf8 l     O ro	0000000000000009 __func__.1484
0000000004102d08 l     O ro	0000000000000008 __func__.1467
0000000004102d10 l     O ro	000000000000000c __func__.1426
0000000004102d20 l     O ro	0000000000000009 __func__.1382
0000000004102d30 l     O ro	0000000000000008 __func__.1440
0000000000000000 l    df *ABS*	0000000000000000 marvell_bl1_setup.c
000000000403a540 l     O .bss	0000000000000020 bl1_ram_layout
0000000000000000 l    df *ABS*	0000000000000000 marvell_io_storage.c
0000000004100e8c l     F ro	0000000000000060 open_fip
0000000004100eec l     F ro	0000000000000060 open_memmap
0000000004102d38 l     O ro	0000000000000011 __func__.1441
0000000004102d50 l     O ro	0000000000000010 bl2_uuid_spec
000000000403a560 l     O .bss	0000000000000008 memmap_dev_con
0000000004102d60 l     O ro	0000000000000010 bl31_uuid_spec
0000000004102d70 l     O ro	0000000000000016 __func__.1457
0000000004102d88 l     O ro	0000000000000090 policies
000000000403a578 l     O .bss	0000000000000008 memmap_dev_handle
0000000004102e90 l     O ro	0000000000000010 fip_block_spec
000000000403a568 l     O .bss	0000000000000008 fip_dev_handle
0000000004102e80 l     O ro	0000000000000010 scp_bl2_uuid_spec
0000000004102e70 l     O ro	0000000000000010 bl33_uuid_spec
000000000403a570 l     O .bss	0000000000000008 fip_dev_con
0000000000000000 l    df *ABS*	0000000000000000 bl1_main.c
0000000004102ea0 l     O ro	0000000000000018 __func__.2274
0000000004102eb8 l     O ro	0000000000000009 __func__.2280
0000000004102ec8 l     O ro	000000000000000d __func__.2290
0000000004102ed8 l     O ro	0000000000000010 bl1_svc_uid
0000000000000000 l    df *ABS*	0000000000000000 bl1_arch_setup.c
0000000000000000 l    df *ABS*	0000000000000000 bl1_context_mgmt.c
00000000041030e0 l     O ro	000000000000000f __func__.2297
0000000004103130 l     O ro	000000000000000f __func__.2302
0000000004103140 l     O ro	0000000000000017 __func__.2309
000000000403a580 l     O .bss	0000000000000010 bl1_cpu_context_ptr
000000000403a590 l     O .bss	0000000000000420 bl1_cpu_context
0000000000000000 l    df *ABS*	0000000000000000 context_mgmt.c
00000000041014ec l     F ro	0000000000000104 cm_init_context_common
00000000041031d8 l     O ro	0000000000000017 __func__.2361
00000000041031f0 l     O ro	0000000000000014 __func__.1987
0000000004103208 l     O ro	0000000000000014 __func__.2378
0000000000000000 l    df *ABS*	0000000000000000 plat_bl1_common.c
0000000000000000 l    df *ABS*	0000000000000000 bl_common.c
0000000004103220 l     O ro	000000000000000f __func__.2345
00000000041032e8 l     O ro	000000000000000c __func__.2355
00000000041032f8 l     O ro	000000000000000b __func__.2382
0000000000000000 l    df *ABS*	0000000000000000 tf_printf.c
0000000004101974 l     F ro	0000000000000074 unsigned_num_print
0000000000000000 l    df *ABS*	0000000000000000 std.c
0000000000000000 l    df *ABS*	0000000000000000 a3700_z_common.c
0000000000000000 l    df *ABS*	0000000000000000 xlat_tables.c
0000000004101da0 l     F ro	00000000000001e0 init_xlation_table
000000000403a9b0 l     O .bss	0000000000000008 tcr_ps_bits
000000000403a9b8 l     O .bss	0000000000000120 mmap
00000000041033b0 l     O ro	0000000000000013 __func__.1999
000000000403b000 l     O xlat_table	0000000000004000 xlat_tables
00000000041033c8 l     O ro	000000000000000f __func__.2029
00000000041033d8 l     O ro	0000000000000011 __func__.2013
00000000041033f0 l     O ro	000000000000001d __func__.2009
0000000004103550 l     O ro	0000000000000010 __func__.1966
000000000403aad8 l     O .bss	0000000000000008 max_va
000000000403aae0 l     O .bss	0000000000000008 max_pa
000000000403ab00 l     O .bss	0000000000000020 l1_xlation_table
000000000403ab20 l     O .bss	0000000000000004 next_xlat
0000000000000000 l    df *ABS*	0000000000000000 marvell_common.c
0000000000000000 l    df *ABS*	0000000000000000 ./build/a3700_z/debug/bl1/plat_helpers.o
0000000000000000 l    df *ABS*	0000000000000000 ./build/a3700_z/debug/bl1/cortex_a53.o
0000000000000000 l       *ABS*	0000000000000000 CPU_MIDR
0000000000000008 l       *ABS*	0000000000000000 CPU_RESET_FUNC
0000000000000010 l       *ABS*	0000000000000000 CPU_OPS_SIZE
00000000041022e8 l     F ro	000000000000002c cortex_a53_reset_func
000000000410230c l       ro	0000000000000000 skip_smp_setup
0000000000000000 l    df *ABS*	0000000000000000 ./build/a3700_z/debug/bl1/platform_up_stack.o
000000000403a040 l       stacks	0000000000000000 platform_normal_stacks
0000000000000000 l    df *ABS*	0000000000000000 ./build/a3700_z/debug/bl1/bl1_exceptions.o
0000000004103800 l       ro	0000000000000000 SynchronousExceptionSP0
0000000004103880 l       ro	0000000000000000 IrqSP0
0000000004103900 l       ro	0000000000000000 FiqSP0
0000000004103980 l       ro	0000000000000000 SErrorSP0
0000000004103a00 l       ro	0000000000000000 SynchronousExceptionSPx
0000000004103a80 l       ro	0000000000000000 IrqSPx
0000000004103b00 l       ro	0000000000000000 FiqSPx
0000000004103b80 l       ro	0000000000000000 SErrorSPx
0000000004103c00 l       ro	0000000000000000 SynchronousExceptionA64
000000000410239c l       ro	0000000000000000 unexpected_sync_exception
0000000004102330 l     F ro	000000000000006c smc_handler64
0000000004103c80 l       ro	0000000000000000 IrqA64
0000000004103d00 l       ro	0000000000000000 FiqA64
0000000004103d80 l       ro	0000000000000000 SErrorA64
0000000004103e00 l       ro	0000000000000000 SynchronousExceptionA32
0000000004103e80 l       ro	0000000000000000 IrqA32
0000000004103f00 l       ro	0000000000000000 FiqA32
0000000004103f80 l       ro	0000000000000000 SErrorA32
00000000041023ac l       ro	0000000000000000 smc_handler
0000000000000000 l    df *ABS*	0000000000000000 ./build/a3700_z/debug/bl1/context.o
0000000000000000 l    df *ABS*	0000000000000000 ./build/a3700_z/debug/bl1/cpu_helpers.o
0000000000000000 l       *ABS*	0000000000000000 CPU_MIDR
0000000000000008 l       *ABS*	0000000000000000 CPU_RESET_FUNC
0000000000000010 l       *ABS*	0000000000000000 CPU_OPS_SIZE
00000000041025bc l       ro	0000000000000000 error_exit
0000000000000000 l    df *ABS*	0000000000000000 ./build/a3700_z/debug/bl1/debug.o
000000000410357f l       ro	0000000000000000 assert_msg1
000000000410358d l       ro	0000000000000000 assert_msg2
0000000004102614 l       ro	0000000000000000 _assert_loop
00000000041025fc l       ro	0000000000000000 dec_print_loop
0000000000000000 l    df *ABS*	0000000000000000 ./build/a3700_z/debug/bl1/cache_helpers.o
000000000410264c l       ro	0000000000000000 loop_civac
0000000000000000 l    df *ABS*	0000000000000000 ./build/a3700_z/debug/bl1/misc_helpers.o
000000000410267c l       ro	0000000000000000 z_loop16
0000000004102690 l       ro	0000000000000000 z_loop1
00000000041026a0 l       ro	0000000000000000 z_end
00000000041026bc l       ro	0000000000000000 m_loop16
00000000041026d4 l       ro	0000000000000000 m_loop1
00000000041026e8 l       ro	0000000000000000 m_end
00000000041026f0 l       ro	0000000000000000 do_disable_mmu
0000000000000000 l    df *ABS*	0000000000000000 ./build/a3700_z/debug/bl1/platform_helpers.o
0000000000000000 l    df *ABS*	0000000000000000 ./build/a3700_z/debug/bl1/console.o
000000000403a000 l       .data	0000000000000000 console_base
000000000410272c l       ro	0000000000000000 init_fail
0000000000000000 l    df *ABS*	0000000000000000 ./build/a3700_z/debug/bl1/a3700_console.o
0000000004102798 l       ro	0000000000000000 init_fail
00000000041027dc l       ro	0000000000000000 putc_error
0000000000000000 l    df *ABS*	0000000000000000 ./build/a3700_z/debug/bl1/marvell_helpers.o
0000000000000000 l    df *ABS*	0000000000000000 
0000000004101d40 g     F ro	000000000000002c putchar
0000000004101730 g     F ro	00000000000000d0 reserve_mem
000000000410161c g     F ro	0000000000000108 cm_prepare_el3_exit
0000000004102550 g     F ro	0000000000000034 reset_handler
000000000403ab28 g     O .bss	0000000000000080 bl2_img_desc
0000000004102810 g     O ro	000000000000001a version_string
000000000410130c g     F ro	000000000000002c bl1_print_bl31_ep_info
000000000410172c  w    F ro	0000000000000004 bl1_plat_set_ep_info
0000000004100de8 g     F ro	0000000000000078 marvell_bl1_early_platform_setup
0000000004101970 g     F ro	0000000000000004 print_entry_point_info
00000000041013a0 g     F ro	0000000000000040 cm_get_context
0000000004102498 g     F ro	0000000000000048 save_gp_registers
00000000041025c0 g     F ro	0000000000000058 asm_assert
000000000410118c g     F ro	0000000000000180 bl1_main
0000000004101cf8 g     F ro	0000000000000048 memmove
0000000004100f4c g     F ro	00000000000000b8 marvell_io_setup
0000000004103f90 g       *ABS*	0000000000000000 __DATA_ROM_START__
0000000004102710  w    F ro	0000000000000004 plat_report_exception
0000000004103350 g     O ro	0000000000000060 plat_arm_mmap
0000000004102830 g     O ro	000000000000001e build_message
00000000041026a4 g     F ro	0000000000000048 memcpy16
000000000410252c g     F ro	0000000000000024 el3_exit
00000000041013e0 g     F ro	0000000000000040 cm_set_context
00000000041020e4 g     F ro	00000000000000d0 init_xlat_tables
00000000041024ec g     F ro	0000000000000040 restore_gp_registers_callee_eret
0000000004101008  w    F ro	0000000000000008 plat_marvell_get_alt_image_source
000000000403f000 g       xlat_table	0000000000000000 __BL1_RAM_END__
0000000004101cd8 g     F ro	0000000000000020 memcpy
00000000041027a0 g     F ro	0000000000000044 console_core_putc
0000000004100e64 g     F ro	000000000000001c marvell_bl1_plat_arch_setup
000000000410280c g     F ro	0000000000000004 platform_mem_init
00000000041020ac g     F ro	0000000000000038 mmap_add
000000000403a480 g       stacks	0000000000000000 __STACKS_END__
0000000000000008 g       *ABS*	0000000000000000 __DATA_SIZE__
0000000004100c54 g     F ro	0000000000000078 io_size
00000000041010c4  w    F ro	00000000000000c8 bl1_init_bl2_mem_layout
000000000403a000 g       .data	0000000000000000 __BL1_RAM_START__
0000000004100924 g     F ro	000000000000006c io_dev_open
0000000004102318 g     F ro	000000000000000c plat_set_my_stack
0000000000000728 g       *ABS*	0000000000000000 __BSS_SIZE__
0000000004102618 g     F ro	0000000000000018 asm_print_str
000000000410273c g     F ro	0000000000000064 console_core_init
00000000041026ec g     F ro	000000000000001c disable_mmu_el3
0000000004102718  w    F ro	0000000000000004 plat_error_handler
000000000410271c g     F ro	0000000000000014 console_init
0000000004102730 g     F ro	000000000000000c console_putc
00000000041022c4 g     F ro	0000000000000008 plat_secondary_cold_boot_setup
00000000041027e4 g     F ro	000000000000001c plat_crash_console_init
0000000004101800 g     F ro	000000000000016c load_image
0000000004102630 g     F ro	0000000000000034 flush_dcache_range
0000000004102714  w    F ro	0000000000000004 plat_reset_handler
0000000004102584 g     F ro	000000000000003c get_cpu_ops_ptr
00000000041015f0 g     F ro	000000000000002c cm_init_my_context
0000000004101394 g     F ro	000000000000000c bl1_arch_setup
000000000410196c g     F ro	0000000000000004 load_auth_image
0000000004101d6c g     F ro	0000000000000034 bl1_plat_get_image_desc
0000000004100e84  w    F ro	0000000000000004 bl1_platform_setup
000000000403a008 g       .data	0000000000000000 __DATA_RAM_END__
00000000041035b0 g       ro	0000000000000000 __CPU_OPS_START__
0000000004103800 g       ro	0000000000000000 bl1_exceptions
00000000041024e0 g     F ro	000000000000000c restore_gp_registers_eret
0000000004101ca4 g     F ro	0000000000000034 memcmp
00000000041022d4 g     F ro	0000000000000014 plat_is_my_cpu_primary
000000000403aba8 g       .bss	0000000000000000 __BSS_END__
00000000041035c0 g       ro	0000000000000000 __CPU_OPS_END__
00000000041022cc g     F ro	0000000000000008 plat_get_my_entrypoint
0000000004100bc4 g     F ro	0000000000000090 io_seek
0000000004100d6c g     F ro	0000000000000070 io_close
0000000004100e88 g     F ro	0000000000000004 bl1_plat_prepare_exit
0000000004100e80  w    F ro	0000000000000004 bl1_plat_arch_setup
0000000004101c88 g     F ro	000000000000001c memset
00000000041035b0 g       ro	0000000000000000 __PARSER_LIB_DESCS_END__
0000000004102708 g     F ro	0000000000000008 disable_mmu_icache_el3
0000000004101420 g     F ro	00000000000000cc bl1_prepare_next_image
0000000004101724  w    F ro	0000000000000008 bl1_plat_get_next_image_id
00000000041019e8 g     F ro	0000000000000284 tf_printf
0000000004103f8c g       ro	0000000000000000 __RO_END__
0000000004100990 g     F ro	0000000000000080 io_dev_init
0000000004100ccc g     F ro	00000000000000a0 io_read
0000000004100ddc  w    F ro	000000000000000c bl1_plat_sec_mem_layout
000000000403a480 g       .bss	0000000000000000 __BSS_START__
0000000004101004  w    F ro	0000000000000004 plat_marvell_io_setup
000000000403a000 g       .data	0000000000000000 __DATA_RAM_START__
000000000410226c g     F ro	0000000000000058 arm_configure_mmu_el3
0000000004100000 g       ro	0000000000000000 __RO_START__
0000000004102800 g     F ro	000000000000000c plat_crash_console_putc
0000000004100a88 g     F ro	000000000000013c io_open
0000000004101010 g     F ro	00000000000000b4 plat_get_image_source
00000000041008d4 g     F ro	0000000000000050 io_register_device
000000000403a008 g       stacks	0000000000000000 __STACKS_START__
00000000041021b4 g     F ro	00000000000000b8 enable_mmu_el3
0000000004101338 g     F ro	000000000000005c bl1_smc_handler
00000000041000c8 g     F ro	0000000000000008 device_type_fip
0000000004100798 g     F ro	000000000000005c register_io_dev_memmap
00000000041004fc g     F ro	0000000000000008 device_type_memmap
0000000004100a10 g     F ro	0000000000000078 io_dev_close
0000000004101c6c g     F ro	000000000000001c __assert
0000000004100e60  w    F ro	0000000000000004 bl1_early_platform_setup
00000000041004a0 g     F ro	000000000000005c register_io_dev_fip
00000000041023e4 g     F ro	00000000000000b4 el1_sysregs_context_restore
0000000004102664 g     F ro	0000000000000040 zeromem16
0000000004100000 g     F ro	00000000000000a0 bl1_entrypoint
0000000004101f80 g     F ro	000000000000012c mmap_add_region
00000000041035b0 g       ro	0000000000000000 __PARSER_LIB_DESCS_START__



Disassembly of section ro:

0000000004100000 <bl1_entrypoint>:
 4100000:	d53e1000 	mrs	x0, sctlr_el3
 4100004:	9266f800 	and	x0, x0, #0xfffffffffdffffff
 4100008:	d51e1000 	msr	sctlr_el3, x0
 410000c:	d5033fdf 	isb
 4100010:	940008af 	bl	41022cc <plat_get_my_entrypoint>
 4100014:	b4000040 	cbz	x0, 410001c <do_cold_boot>
 4100018:	d61f0000 	br	x0

000000000410001c <do_cold_boot>:
 410001c:	940008ae 	bl	41022d4 <plat_is_my_cpu_primary>
 4100020:	35000060 	cbnz	w0, 410002c <do_primary_cold_boot>
 4100024:	940008a8 	bl	41022c4 <plat_secondary_cold_boot_setup>

0000000004100028 <secondary_panic>:
 4100028:	14000000 	b	4100028 <secondary_panic>

000000000410002c <do_primary_cold_boot>:
 410002c:	94000949 	bl	4102550 <reset_handler>
 4100030:	d2820141 	mov	x1, #0x100a                	// #4106
 4100034:	d53e1000 	mrs	x0, sctlr_el3
 4100038:	aa010000 	orr	x0, x0, x1
 410003c:	d51e1000 	msr	sctlr_el3, x0
 4100040:	d5033fdf 	isb
 4100044:	1001bde0 	adr	x0, 4103800 <bl1_exceptions>
 4100048:	d51ec000 	msr	vbar_el3, x0
 410004c:	d5033fdf 	isb
 4100050:	d50344ff 	msr	daifclr, #0x4
 4100054:	d53e1140 	mrs	x0, cptr_el3
 4100058:	12007800 	and	w0, w0, #0x7fffffff
 410005c:	120b7800 	and	w0, w0, #0xffefffff
 4100060:	12157800 	and	w0, w0, #0xfffffbff
 4100064:	d51e1140 	msr	cptr_el3, x0
 4100068:	940009e9 	bl	410280c <platform_mem_init>
 410006c:	580001a0 	ldr	x0, 41000a0 <do_primary_cold_boot+0x74>
 4100070:	580001c1 	ldr	x1, 41000a8 <do_primary_cold_boot+0x7c>
 4100074:	9400097c 	bl	4102664 <zeromem16>
 4100078:	580001c0 	ldr	x0, 41000b0 <do_primary_cold_boot+0x84>
 410007c:	580001e1 	ldr	x1, 41000b8 <do_primary_cold_boot+0x8c>
 4100080:	58000202 	ldr	x2, 41000c0 <do_primary_cold_boot+0x94>
 4100084:	94000988 	bl	41026a4 <memcpy16>
 4100088:	d50040bf 	msr	spsel, #0x0
 410008c:	940008a3 	bl	4102318 <plat_set_my_stack>
 4100090:	94000374 	bl	4100e60 <bl1_early_platform_setup>
 4100094:	9400037b 	bl	4100e80 <bl1_plat_arch_setup>
 4100098:	9400043d 	bl	410118c <bl1_main>
 410009c:	14000924 	b	410252c <el3_exit>
 41000a0:	0403a480 	.word	0x0403a480
 41000a4:	00000000 	.word	0x00000000
 41000a8:	00000728 	.word	0x00000728
 41000ac:	00000000 	.word	0x00000000
 41000b0:	0403a000 	.word	0x0403a000
 41000b4:	00000000 	.word	0x00000000
 41000b8:	04103f90 	.word	0x04103f90
 41000bc:	00000000 	.word	0x00000000
 41000c0:	00000008 	.word	0x00000008
 41000c4:	00000000 	.word	0x00000000

00000000041000c8 <device_type_fip>:
 41000c8:	52800060 	mov	w0, #0x3                   	// #3
 41000cc:	d65f03c0 	ret

00000000041000d0 <fip_dev_close>:
 41000d0:	d0fff9c0 	adrp	x0, 403a000 <__BL1_RAM_START__>
 41000d4:	f9025c1f 	str	xzr, [x0,#1208]
 41000d8:	d0fff9c0 	adrp	x0, 403a000 <__BL1_RAM_START__>
 41000dc:	f902401f 	str	xzr, [x0,#1152]
 41000e0:	52800000 	mov	w0, #0x0                   	// #0
 41000e4:	d65f03c0 	ret

00000000041000e8 <fip_dev_init>:
 41000e8:	a9bc7bfd 	stp	x29, x30, [sp,#-64]!
 41000ec:	aa0103e0 	mov	x0, x1
 41000f0:	910003fd 	mov	x29, sp
 41000f4:	a90153f3 	stp	x19, x20, [sp,#16]
 41000f8:	d0fff9d4 	adrp	x20, 403a000 <__BL1_RAM_START__>
 41000fc:	d0fff9d3 	adrp	x19, 403a000 <__BL1_RAM_START__>
 4100100:	91120282 	add	x2, x20, #0x480
 4100104:	9112e261 	add	x1, x19, #0x4b8
 4100108:	940003c2 	bl	4101010 <plat_get_image_source>
 410010c:	34000060 	cbz	w0, 4100118 <fip_dev_init+0x30>
 4100110:	12800033 	mov	w19, #0xfffffffe            	// #-2
 4100114:	14000018 	b	4100174 <fip_dev_init+0x8c>
 4100118:	f9424281 	ldr	x1, [x20,#1152]
 410011c:	910083a2 	add	x2, x29, #0x20
 4100120:	f9425e60 	ldr	x0, [x19,#1208]
 4100124:	94000259 	bl	4100a88 <io_open>
 4100128:	35ffff40 	cbnz	w0, 4100110 <fip_dev_init+0x28>
 410012c:	f94013a0 	ldr	x0, [x29,#32]
 4100130:	9100a3a3 	add	x3, x29, #0x28
 4100134:	d2800202 	mov	x2, #0x10                  	// #16
 4100138:	9100c3a1 	add	x1, x29, #0x30
 410013c:	940002e4 	bl	4100ccc <io_read>
 4100140:	2a0003f3 	mov	w19, w0
 4100144:	35000140 	cbnz	w0, 410016c <fip_dev_init+0x84>
 4100148:	52800020 	mov	w0, #0x1                   	// #1
 410014c:	b94033a1 	ldr	w1, [x29,#48]
 4100150:	72b54c80 	movk	w0, #0xaa64, lsl #16
 4100154:	12800033 	mov	w19, #0xfffffffe            	// #-2
 4100158:	6b00003f 	cmp	w1, w0
 410015c:	54000081 	b.ne	410016c <fip_dev_init+0x84>
 4100160:	b94037a0 	ldr	w0, [x29,#52]
 4100164:	6b1f001f 	cmp	w0, wzr
 4100168:	1a9313f3 	csel	w19, wzr, w19, ne
 410016c:	f94013a0 	ldr	x0, [x29,#32]
 4100170:	940002ff 	bl	4100d6c <io_close>
 4100174:	2a1303e0 	mov	w0, w19
 4100178:	a94153f3 	ldp	x19, x20, [sp,#16]
 410017c:	a8c47bfd 	ldp	x29, x30, [sp],#64
 4100180:	d65f03c0 	ret

0000000004100184 <fip_file_close>:
 4100184:	a9be7bfd 	stp	x29, x30, [sp,#-32]!
 4100188:	910003fd 	mov	x29, sp
 410018c:	f9000bf3 	str	x19, [sp,#16]
 4100190:	aa0003f3 	mov	x19, x0
 4100194:	d0fff9c0 	adrp	x0, 403a000 <__BL1_RAM_START__>
 4100198:	91122000 	add	x0, x0, #0x488
 410019c:	f9400c01 	ldr	x1, [x0,#24]
 41001a0:	b4000081 	cbz	x1, 41001b0 <fip_file_close+0x2c>
 41001a4:	d2800602 	mov	x2, #0x30                  	// #48
 41001a8:	52800001 	mov	w1, #0x0                   	// #0
 41001ac:	940006b7 	bl	4101c88 <memset>
 41001b0:	f900067f 	str	xzr, [x19,#8]
 41001b4:	52800000 	mov	w0, #0x0                   	// #0
 41001b8:	f9400bf3 	ldr	x19, [sp,#16]
 41001bc:	a8c27bfd 	ldp	x29, x30, [sp],#32
 41001c0:	d65f03c0 	ret

00000000041001c4 <fip_file_read>:
 41001c4:	a9bb7bfd 	stp	x29, x30, [sp,#-80]!
 41001c8:	910003fd 	mov	x29, sp
 41001cc:	a90153f3 	stp	x19, x20, [sp,#16]
 41001d0:	a9025bf5 	stp	x21, x22, [sp,#32]
 41001d4:	f9001bf7 	str	x23, [sp,#48]
 41001d8:	b50000a0 	cbnz	x0, 41001ec <fip_file_read+0x28>
 41001dc:	d0000003 	adrp	x3, 4102000 <mmap_add_region+0x80>
 41001e0:	528025a2 	mov	w2, #0x12d                 	// #301
 41001e4:	91226063 	add	x3, x3, #0x898
 41001e8:	14000006 	b	4100200 <fip_file_read+0x3c>
 41001ec:	aa0103f6 	mov	x22, x1
 41001f0:	b5000121 	cbnz	x1, 4100214 <fip_file_read+0x50>
 41001f4:	d0000003 	adrp	x3, 4102000 <mmap_add_region+0x80>
 41001f8:	528025e2 	mov	w2, #0x12f                 	// #303
 41001fc:	9122ec63 	add	x3, x3, #0x8bb
 4100200:	d0000001 	adrp	x1, 4102000 <mmap_add_region+0x80>
 4100204:	d0000000 	adrp	x0, 4102000 <mmap_add_region+0x80>
 4100208:	91229c21 	add	x1, x1, #0x8a7
 410020c:	91254000 	add	x0, x0, #0x950
 4100210:	94000697 	bl	4101c6c <__assert>
 4100214:	aa0303f5 	mov	x21, x3
 4100218:	b50000a3 	cbnz	x3, 410022c <fip_file_read+0x68>
 410021c:	d0000003 	adrp	x3, 4102000 <mmap_add_region+0x80>
 4100220:	52802622 	mov	w2, #0x131                 	// #305
 4100224:	91235463 	add	x3, x3, #0x8d5
 4100228:	17fffff6 	b	4100200 <fip_file_read+0x3c>
 410022c:	aa0003f4 	mov	x20, x0
 4100230:	f9400400 	ldr	x0, [x0,#8]
 4100234:	b50000a0 	cbnz	x0, 4100248 <fip_file_read+0x84>
 4100238:	d0000003 	adrp	x3, 4102000 <mmap_add_region+0x80>
 410023c:	52802642 	mov	w2, #0x132                 	// #306
 4100240:	9123a463 	add	x3, x3, #0x8e9
 4100244:	17ffffef 	b	4100200 <fip_file_read+0x3c>
 4100248:	d0fff9c0 	adrp	x0, 403a000 <__BL1_RAM_START__>
 410024c:	aa0203f7 	mov	x23, x2
 4100250:	910123a2 	add	x2, x29, #0x48
 4100254:	12800033 	mov	w19, #0xfffffffe            	// #-2
 4100258:	f9424001 	ldr	x1, [x0,#1152]
 410025c:	d0fff9c0 	adrp	x0, 403a000 <__BL1_RAM_START__>
 4100260:	f9425c00 	ldr	x0, [x0,#1208]
 4100264:	94000209 	bl	4100a88 <io_open>
 4100268:	35000320 	cbnz	w0, 41002cc <fip_file_read+0x108>
 410026c:	f9400694 	ldr	x20, [x20,#8]
 4100270:	52800021 	mov	w1, #0x1                   	// #1
 4100274:	f9400e80 	ldr	x0, [x20,#24]
 4100278:	b9400282 	ldr	w2, [x20]
 410027c:	8b000042 	add	x2, x2, x0
 4100280:	f94027a0 	ldr	x0, [x29,#72]
 4100284:	94000250 	bl	4100bc4 <io_seek>
 4100288:	34000060 	cbz	w0, 4100294 <fip_file_read+0xd0>
 410028c:	12800033 	mov	w19, #0xfffffffe            	// #-2
 4100290:	1400000d 	b	41002c4 <fip_file_read+0x100>
 4100294:	f94027a0 	ldr	x0, [x29,#72]
 4100298:	910103a3 	add	x3, x29, #0x40
 410029c:	aa1703e2 	mov	x2, x23
 41002a0:	aa1603e1 	mov	x1, x22
 41002a4:	9400028a 	bl	4100ccc <io_read>
 41002a8:	2a0003f3 	mov	w19, w0
 41002ac:	35ffff00 	cbnz	w0, 410028c <fip_file_read+0xc8>
 41002b0:	b9400281 	ldr	w1, [x20]
 41002b4:	f94023a0 	ldr	x0, [x29,#64]
 41002b8:	f90002a0 	str	x0, [x21]
 41002bc:	0b000020 	add	w0, w1, w0
 41002c0:	b9000280 	str	w0, [x20]
 41002c4:	f94027a0 	ldr	x0, [x29,#72]
 41002c8:	940002a9 	bl	4100d6c <io_close>
 41002cc:	2a1303e0 	mov	w0, w19
 41002d0:	f9401bf7 	ldr	x23, [sp,#48]
 41002d4:	a94153f3 	ldp	x19, x20, [sp,#16]
 41002d8:	a9425bf5 	ldp	x21, x22, [sp,#32]
 41002dc:	a8c57bfd 	ldp	x29, x30, [sp],#80
 41002e0:	d65f03c0 	ret

00000000041002e4 <fip_dev_open>:
 41002e4:	b5000161 	cbnz	x1, 4100310 <fip_dev_open+0x2c>
 41002e8:	a9bf7bfd 	stp	x29, x30, [sp,#-16]!
 41002ec:	d0000003 	adrp	x3, 4102000 <mmap_add_region+0x80>
 41002f0:	d0000001 	adrp	x1, 4102000 <mmap_add_region+0x80>
 41002f4:	d0000000 	adrp	x0, 4102000 <mmap_add_region+0x80>
 41002f8:	910003fd 	mov	x29, sp
 41002fc:	91242463 	add	x3, x3, #0x909
 4100300:	528010c2 	mov	w2, #0x86                  	// #134
 4100304:	91229c21 	add	x1, x1, #0x8a7
 4100308:	91258000 	add	x0, x0, #0x960
 410030c:	94000658 	bl	4101c6c <__assert>
 4100310:	d0000000 	adrp	x0, 4102000 <mmap_add_region+0x80>
 4100314:	91214000 	add	x0, x0, #0x850
 4100318:	f9000020 	str	x0, [x1]
 410031c:	52800000 	mov	w0, #0x0                   	// #0
 4100320:	d65f03c0 	ret

0000000004100324 <fip_file_len>:
 4100324:	a9bf7bfd 	stp	x29, x30, [sp,#-16]!
 4100328:	910003fd 	mov	x29, sp
 410032c:	b50000a0 	cbnz	x0, 4100340 <fip_file_len+0x1c>
 4100330:	d0000003 	adrp	x3, 4102000 <mmap_add_region+0x80>
 4100334:	52802342 	mov	w2, #0x11a                 	// #282
 4100338:	91226063 	add	x3, x3, #0x898
 410033c:	14000005 	b	4100350 <fip_file_len+0x2c>
 4100340:	b5000121 	cbnz	x1, 4100364 <fip_file_len+0x40>
 4100344:	d0000003 	adrp	x3, 4102000 <mmap_add_region+0x80>
 4100348:	52802362 	mov	w2, #0x11b                 	// #283
 410034c:	91246863 	add	x3, x3, #0x91a
 4100350:	d0000001 	adrp	x1, 4102000 <mmap_add_region+0x80>
 4100354:	d0000000 	adrp	x0, 4102000 <mmap_add_region+0x80>
 4100358:	91229c21 	add	x1, x1, #0x8a7
 410035c:	9121e000 	add	x0, x0, #0x878
 4100360:	94000643 	bl	4101c6c <__assert>
 4100364:	f9400400 	ldr	x0, [x0,#8]
 4100368:	f9401000 	ldr	x0, [x0,#32]
 410036c:	f9000020 	str	x0, [x1]
 4100370:	52800000 	mov	w0, #0x0                   	// #0
 4100374:	a8c17bfd 	ldp	x29, x30, [sp],#16
 4100378:	d65f03c0 	ret

000000000410037c <fip_file_open>:
 410037c:	a9bb7bfd 	stp	x29, x30, [sp,#-80]!
 4100380:	910003fd 	mov	x29, sp
 4100384:	a90153f3 	stp	x19, x20, [sp,#16]
 4100388:	a9025bf5 	stp	x21, x22, [sp,#32]
 410038c:	a90363f7 	stp	x23, x24, [sp,#48]
 4100390:	b50000a1 	cbnz	x1, 41003a4 <fip_file_open+0x28>
 4100394:	d0000003 	adrp	x3, 4102000 <mmap_add_region+0x80>
 4100398:	52801a22 	mov	w2, #0xd1                  	// #209
 410039c:	9124a463 	add	x3, x3, #0x929
 41003a0:	14000006 	b	41003b8 <fip_file_open+0x3c>
 41003a4:	aa0203f7 	mov	x23, x2
 41003a8:	b5000122 	cbnz	x2, 41003cc <fip_file_open+0x50>
 41003ac:	d0000003 	adrp	x3, 4102000 <mmap_add_region+0x80>
 41003b0:	52801a42 	mov	w2, #0xd2                  	// #210
 41003b4:	91226063 	add	x3, x3, #0x898
 41003b8:	d0000001 	adrp	x1, 4102000 <mmap_add_region+0x80>
 41003bc:	d0000000 	adrp	x0, 4102000 <mmap_add_region+0x80>
 41003c0:	91229c21 	add	x1, x1, #0x8a7
 41003c4:	91218000 	add	x0, x0, #0x860
 41003c8:	94000629 	bl	4101c6c <__assert>
 41003cc:	d0fff9d3 	adrp	x19, 403a000 <__BL1_RAM_START__>
 41003d0:	12800174 	mov	w20, #0xfffffff4            	// #-12
 41003d4:	91122273 	add	x19, x19, #0x488
 41003d8:	f9400e60 	ldr	x0, [x19,#24]
 41003dc:	b5000560 	cbnz	x0, 4100488 <fip_file_open+0x10c>
 41003e0:	d0fff9c0 	adrp	x0, 403a000 <__BL1_RAM_START__>
 41003e4:	aa0103f8 	mov	x24, x1
 41003e8:	910103a2 	add	x2, x29, #0x40
 41003ec:	12800034 	mov	w20, #0xfffffffe            	// #-2
 41003f0:	f9424001 	ldr	x1, [x0,#1152]
 41003f4:	d0fff9c0 	adrp	x0, 403a000 <__BL1_RAM_START__>
 41003f8:	f9425c00 	ldr	x0, [x0,#1208]
 41003fc:	940001a3 	bl	4100a88 <io_open>
 4100400:	35000440 	cbnz	w0, 4100488 <fip_file_open+0x10c>
 4100404:	f94023a0 	ldr	x0, [x29,#64]
 4100408:	d2800202 	mov	x2, #0x10                  	// #16
 410040c:	52800021 	mov	w1, #0x1                   	// #1
 4100410:	940001ed 	bl	4100bc4 <io_seek>
 4100414:	350002e0 	cbnz	w0, 4100470 <fip_file_open+0xf4>
 4100418:	d0000016 	adrp	x22, 4102000 <mmap_add_region+0x80>
 410041c:	91002275 	add	x21, x19, #0x8
 4100420:	912222d6 	add	x22, x22, #0x888
 4100424:	f94023a0 	ldr	x0, [x29,#64]
 4100428:	910123a3 	add	x3, x29, #0x48
 410042c:	d2800502 	mov	x2, #0x28                  	// #40
 4100430:	aa1503e1 	mov	x1, x21
 4100434:	94000226 	bl	4100ccc <io_read>
 4100438:	2a0003f4 	mov	w20, w0
 410043c:	350001a0 	cbnz	w0, 4100470 <fip_file_open+0xf4>
 4100440:	d2800202 	mov	x2, #0x10                  	// #16
 4100444:	aa1803e1 	mov	x1, x24
 4100448:	aa1503e0 	mov	x0, x21
 410044c:	94000616 	bl	4101ca4 <memcmp>
 4100450:	34000160 	cbz	w0, 410047c <fip_file_open+0x100>
 4100454:	d2800202 	mov	x2, #0x10                  	// #16
 4100458:	aa1603e1 	mov	x1, x22
 410045c:	aa1503e0 	mov	x0, x21
 4100460:	94000611 	bl	4101ca4 <memcmp>
 4100464:	35fffe00 	cbnz	w0, 4100424 <fip_file_open+0xa8>
 4100468:	12800034 	mov	w20, #0xfffffffe            	// #-2
 410046c:	f9000e7f 	str	xzr, [x19,#24]
 4100470:	f94023a0 	ldr	x0, [x29,#64]
 4100474:	9400023e 	bl	4100d6c <io_close>
 4100478:	14000004 	b	4100488 <fip_file_open+0x10c>
 410047c:	b900027f 	str	wzr, [x19]
 4100480:	f90006f3 	str	x19, [x23,#8]
 4100484:	17fffffb 	b	4100470 <fip_file_open+0xf4>
 4100488:	2a1403e0 	mov	w0, w20
 410048c:	a94153f3 	ldp	x19, x20, [sp,#16]
 4100490:	a9425bf5 	ldp	x21, x22, [sp,#32]
 4100494:	a94363f7 	ldp	x23, x24, [sp,#48]
 4100498:	a8c57bfd 	ldp	x29, x30, [sp],#80
 410049c:	d65f03c0 	ret

00000000041004a0 <register_io_dev_fip>:
 41004a0:	a9be7bfd 	stp	x29, x30, [sp,#-32]!
 41004a4:	910003fd 	mov	x29, sp
 41004a8:	f9000bf3 	str	x19, [sp,#16]
 41004ac:	b5000120 	cbnz	x0, 41004d0 <register_io_dev_fip+0x30>
 41004b0:	d0000003 	adrp	x3, 4102000 <mmap_add_region+0x80>
 41004b4:	d0000001 	adrp	x1, 4102000 <mmap_add_region+0x80>
 41004b8:	d0000000 	adrp	x0, 4102000 <mmap_add_region+0x80>
 41004bc:	9124ec63 	add	x3, x3, #0x93b
 41004c0:	52802e62 	mov	w2, #0x173                 	// #371
 41004c4:	91229c21 	add	x1, x1, #0x8a7
 41004c8:	9125c000 	add	x0, x0, #0x970
 41004cc:	940005e8 	bl	4101c6c <__assert>
 41004d0:	aa0003f3 	mov	x19, x0
 41004d4:	d0000000 	adrp	x0, 4102000 <mmap_add_region+0x80>
 41004d8:	91214000 	add	x0, x0, #0x850
 41004dc:	940000fe 	bl	41008d4 <io_register_device>
 41004e0:	35000080 	cbnz	w0, 41004f0 <register_io_dev_fip+0x50>
 41004e4:	d0000001 	adrp	x1, 4102000 <mmap_add_region+0x80>
 41004e8:	9121c021 	add	x1, x1, #0x870
 41004ec:	f9000261 	str	x1, [x19]
 41004f0:	f9400bf3 	ldr	x19, [sp,#16]
 41004f4:	a8c27bfd 	ldp	x29, x30, [sp],#32
 41004f8:	d65f03c0 	ret

00000000041004fc <device_type_memmap>:
 41004fc:	52800040 	mov	w0, #0x2                   	// #2
 4100500:	d65f03c0 	ret

0000000004100504 <memmap_dev_close>:
 4100504:	52800000 	mov	w0, #0x0                   	// #0
 4100508:	d65f03c0 	ret

000000000410050c <memmap_dev_open>:
 410050c:	b5000161 	cbnz	x1, 4100538 <memmap_dev_open+0x2c>
 4100510:	a9bf7bfd 	stp	x29, x30, [sp,#-16]!
 4100514:	d0000003 	adrp	x3, 4102000 <mmap_add_region+0x80>
 4100518:	d0000001 	adrp	x1, 4102000 <mmap_add_region+0x80>
 410051c:	d0000000 	adrp	x0, 4102000 <mmap_add_region+0x80>
 4100520:	910003fd 	mov	x29, sp
 4100524:	91242463 	add	x3, x3, #0x909
 4100528:	52800cc2 	mov	w2, #0x66                  	// #102
 410052c:	9128c021 	add	x1, x1, #0xa30
 4100530:	912c2000 	add	x0, x0, #0xb08
 4100534:	940005ce 	bl	4101c6c <__assert>
 4100538:	d0000000 	adrp	x0, 4102000 <mmap_add_region+0x80>
 410053c:	91274000 	add	x0, x0, #0x9d0
 4100540:	f9000020 	str	x0, [x1]
 4100544:	52800000 	mov	w0, #0x0                   	// #0
 4100548:	d65f03c0 	ret

000000000410054c <memmap_block_seek>:
 410054c:	7100043f 	cmp	w1, #0x1
 4100550:	54000201 	b.ne	4100590 <memmap_block_seek+0x44>
 4100554:	b5000160 	cbnz	x0, 4100580 <memmap_block_seek+0x34>
 4100558:	a9bf7bfd 	stp	x29, x30, [sp,#-16]!
 410055c:	d0000003 	adrp	x3, 4102000 <mmap_add_region+0x80>
 4100560:	d0000001 	adrp	x1, 4102000 <mmap_add_region+0x80>
 4100564:	d0000000 	adrp	x0, 4102000 <mmap_add_region+0x80>
 4100568:	910003fd 	mov	x29, sp
 410056c:	91226063 	add	x3, x3, #0x898
 4100570:	52801382 	mov	w2, #0x9c                  	// #156
 4100574:	9128c021 	add	x1, x1, #0xa30
 4100578:	9127e000 	add	x0, x0, #0x9f8
 410057c:	940005bc 	bl	4101c6c <__assert>
 4100580:	f9400400 	ldr	x0, [x0,#8]
 4100584:	f9000802 	str	x2, [x0,#16]
 4100588:	52800000 	mov	w0, #0x0                   	// #0
 410058c:	d65f03c0 	ret
 4100590:	12800020 	mov	w0, #0xfffffffe            	// #-2
 4100594:	d65f03c0 	ret

0000000004100598 <memmap_block_open>:
 4100598:	d0fff9c3 	adrp	x3, 403a000 <__BL1_RAM_START__>
 410059c:	a9bf7bfd 	stp	x29, x30, [sp,#-16]!
 41005a0:	910003fd 	mov	x29, sp
 41005a4:	b944c064 	ldr	w4, [x3,#1216]
 41005a8:	350002e4 	cbnz	w4, 4100604 <memmap_block_open+0x6c>
 41005ac:	b50000a1 	cbnz	x1, 41005c0 <memmap_block_open+0x28>
 41005b0:	d0000003 	adrp	x3, 4102000 <mmap_add_region+0x80>
 41005b4:	52801082 	mov	w2, #0x84                  	// #132
 41005b8:	91291c63 	add	x3, x3, #0xa47
 41005bc:	14000005 	b	41005d0 <memmap_block_open+0x38>
 41005c0:	b5000122 	cbnz	x2, 41005e4 <memmap_block_open+0x4c>
 41005c4:	d0000003 	adrp	x3, 4102000 <mmap_add_region+0x80>
 41005c8:	528010a2 	mov	w2, #0x85                  	// #133
 41005cc:	91226063 	add	x3, x3, #0x898
 41005d0:	d0000001 	adrp	x1, 4102000 <mmap_add_region+0x80>
 41005d4:	d0000000 	adrp	x0, 4102000 <mmap_add_region+0x80>
 41005d8:	9128c021 	add	x1, x1, #0xa30
 41005dc:	91278000 	add	x0, x0, #0x9e0
 41005e0:	940005a3 	bl	4101c6c <__assert>
 41005e4:	91130060 	add	x0, x3, #0x4c0
 41005e8:	f9400021 	ldr	x1, [x1]
 41005ec:	52800024 	mov	w4, #0x1                   	// #1
 41005f0:	b904c064 	str	w4, [x3,#1216]
 41005f4:	a900fc01 	stp	x1, xzr, [x0,#8]
 41005f8:	f9000440 	str	x0, [x2,#8]
 41005fc:	52800000 	mov	w0, #0x0                   	// #0
 4100600:	14000002 	b	4100608 <memmap_block_open+0x70>
 4100604:	12800160 	mov	w0, #0xfffffff4            	// #-12
 4100608:	a8c17bfd 	ldp	x29, x30, [sp],#16
 410060c:	d65f03c0 	ret

0000000004100610 <memmap_block_close>:
 4100610:	a9bf7bfd 	stp	x29, x30, [sp,#-16]!
 4100614:	910003fd 	mov	x29, sp
 4100618:	b5000120 	cbnz	x0, 410063c <memmap_block_close+0x2c>
 410061c:	d0000003 	adrp	x3, 4102000 <mmap_add_region+0x80>
 4100620:	d0000001 	adrp	x1, 4102000 <mmap_add_region+0x80>
 4100624:	d0000000 	adrp	x0, 4102000 <mmap_add_region+0x80>
 4100628:	91226063 	add	x3, x3, #0x898
 410062c:	52801b22 	mov	w2, #0xd9                  	// #217
 4100630:	9128c021 	add	x1, x1, #0xa30
 4100634:	912b0000 	add	x0, x0, #0xac0
 4100638:	9400058d 	bl	4101c6c <__assert>
 410063c:	f900041f 	str	xzr, [x0,#8]
 4100640:	d0fff9c0 	adrp	x0, 403a000 <__BL1_RAM_START__>
 4100644:	d2800302 	mov	x2, #0x18                  	// #24
 4100648:	52800001 	mov	w1, #0x0                   	// #0
 410064c:	91130000 	add	x0, x0, #0x4c0
 4100650:	9400058e 	bl	4101c88 <memset>
 4100654:	52800000 	mov	w0, #0x0                   	// #0
 4100658:	a8c17bfd 	ldp	x29, x30, [sp],#16
 410065c:	d65f03c0 	ret

0000000004100660 <memmap_block_write>:
 4100660:	a9bd7bfd 	stp	x29, x30, [sp,#-48]!
 4100664:	910003fd 	mov	x29, sp
 4100668:	a90153f3 	stp	x19, x20, [sp,#16]
 410066c:	f90013f5 	str	x21, [sp,#32]
 4100670:	b50000a0 	cbnz	x0, 4100684 <memmap_block_write+0x24>
 4100674:	d0000003 	adrp	x3, 4102000 <mmap_add_region+0x80>
 4100678:	528018a2 	mov	w2, #0xc5                  	// #197
 410067c:	91226063 	add	x3, x3, #0x898
 4100680:	14000005 	b	4100694 <memmap_block_write+0x34>
 4100684:	b5000121 	cbnz	x1, 41006a8 <memmap_block_write+0x48>
 4100688:	d0000003 	adrp	x3, 4102000 <mmap_add_region+0x80>
 410068c:	528018c2 	mov	w2, #0xc6                  	// #198
 4100690:	9122ec63 	add	x3, x3, #0x8bb
 4100694:	d0000001 	adrp	x1, 4102000 <mmap_add_region+0x80>
 4100698:	d0000000 	adrp	x0, 4102000 <mmap_add_region+0x80>
 410069c:	9128c021 	add	x1, x1, #0xa30
 41006a0:	912b6000 	add	x0, x0, #0xad8
 41006a4:	94000572 	bl	4101c6c <__assert>
 41006a8:	aa0303f5 	mov	x21, x3
 41006ac:	b50000a3 	cbnz	x3, 41006c0 <memmap_block_write+0x60>
 41006b0:	d0000003 	adrp	x3, 4102000 <mmap_add_region+0x80>
 41006b4:	528018e2 	mov	w2, #0xc7                  	// #199
 41006b8:	91296863 	add	x3, x3, #0xa5a
 41006bc:	17fffff6 	b	4100694 <memmap_block_write+0x34>
 41006c0:	f9400413 	ldr	x19, [x0,#8]
 41006c4:	aa0203f4 	mov	x20, x2
 41006c8:	a9408263 	ldp	x3, x0, [x19,#8]
 41006cc:	8b000060 	add	x0, x3, x0
 41006d0:	94000582 	bl	4101cd8 <memcpy>
 41006d4:	f90002b4 	str	x20, [x21]
 41006d8:	f94013f5 	ldr	x21, [sp,#32]
 41006dc:	f9400a60 	ldr	x0, [x19,#16]
 41006e0:	8b140014 	add	x20, x0, x20
 41006e4:	f9000a74 	str	x20, [x19,#16]
 41006e8:	52800000 	mov	w0, #0x0                   	// #0
 41006ec:	a94153f3 	ldp	x19, x20, [sp,#16]
 41006f0:	a8c37bfd 	ldp	x29, x30, [sp],#48
 41006f4:	d65f03c0 	ret

00000000041006f8 <memmap_block_read>:
 41006f8:	a9bd7bfd 	stp	x29, x30, [sp,#-48]!
 41006fc:	aa0003e4 	mov	x4, x0
 4100700:	910003fd 	mov	x29, sp
 4100704:	a90153f3 	stp	x19, x20, [sp,#16]
 4100708:	f90013f5 	str	x21, [sp,#32]
 410070c:	b50000a0 	cbnz	x0, 4100720 <memmap_block_read+0x28>
 4100710:	d0000003 	adrp	x3, 4102000 <mmap_add_region+0x80>
 4100714:	528015a2 	mov	w2, #0xad                  	// #173
 4100718:	91226063 	add	x3, x3, #0x898
 410071c:	14000006 	b	4100734 <memmap_block_read+0x3c>
 4100720:	aa0103e0 	mov	x0, x1
 4100724:	b5000121 	cbnz	x1, 4100748 <memmap_block_read+0x50>
 4100728:	d0000003 	adrp	x3, 4102000 <mmap_add_region+0x80>
 410072c:	528015e2 	mov	w2, #0xaf                  	// #175
 4100730:	9122ec63 	add	x3, x3, #0x8bb
 4100734:	d0000001 	adrp	x1, 4102000 <mmap_add_region+0x80>
 4100738:	d0000000 	adrp	x0, 4102000 <mmap_add_region+0x80>
 410073c:	9128c021 	add	x1, x1, #0xa30
 4100740:	91284000 	add	x0, x0, #0xa10
 4100744:	9400054a 	bl	4101c6c <__assert>
 4100748:	aa0303f5 	mov	x21, x3
 410074c:	b50000a3 	cbnz	x3, 4100760 <memmap_block_read+0x68>
 4100750:	d0000003 	adrp	x3, 4102000 <mmap_add_region+0x80>
 4100754:	52801622 	mov	w2, #0xb1                  	// #177
 4100758:	91235463 	add	x3, x3, #0x8d5
 410075c:	17fffff6 	b	4100734 <memmap_block_read+0x3c>
 4100760:	f9400493 	ldr	x19, [x4,#8]
 4100764:	aa0203f4 	mov	x20, x2
 4100768:	a9408663 	ldp	x3, x1, [x19,#8]
 410076c:	8b010061 	add	x1, x3, x1
 4100770:	9400055a 	bl	4101cd8 <memcpy>
 4100774:	f90002b4 	str	x20, [x21]
 4100778:	f94013f5 	ldr	x21, [sp,#32]
 410077c:	f9400a60 	ldr	x0, [x19,#16]
 4100780:	8b140014 	add	x20, x0, x20
 4100784:	f9000a74 	str	x20, [x19,#16]
 4100788:	52800000 	mov	w0, #0x0                   	// #0
 410078c:	a94153f3 	ldp	x19, x20, [sp,#16]
 4100790:	a8c37bfd 	ldp	x29, x30, [sp],#48
 4100794:	d65f03c0 	ret

0000000004100798 <register_io_dev_memmap>:
 4100798:	a9be7bfd 	stp	x29, x30, [sp,#-32]!
 410079c:	910003fd 	mov	x29, sp
 41007a0:	f9000bf3 	str	x19, [sp,#16]
 41007a4:	b5000120 	cbnz	x0, 41007c8 <register_io_dev_memmap+0x30>
 41007a8:	d0000003 	adrp	x3, 4102000 <mmap_add_region+0x80>
 41007ac:	d0000001 	adrp	x1, 4102000 <mmap_add_region+0x80>
 41007b0:	d0000000 	adrp	x0, 4102000 <mmap_add_region+0x80>
 41007b4:	9124ec63 	add	x3, x3, #0x93b
 41007b8:	52801d42 	mov	w2, #0xea                  	// #234
 41007bc:	9128c021 	add	x1, x1, #0xa30
 41007c0:	912bc000 	add	x0, x0, #0xaf0
 41007c4:	9400052a 	bl	4101c6c <__assert>
 41007c8:	aa0003f3 	mov	x19, x0
 41007cc:	d0000000 	adrp	x0, 4102000 <mmap_add_region+0x80>
 41007d0:	91274000 	add	x0, x0, #0x9d0
 41007d4:	94000040 	bl	41008d4 <io_register_device>
 41007d8:	35000080 	cbnz	w0, 41007e8 <register_io_dev_memmap+0x50>
 41007dc:	d0000001 	adrp	x1, 4102000 <mmap_add_region+0x80>
 41007e0:	9128a021 	add	x1, x1, #0xa28
 41007e4:	f9000261 	str	x1, [x19]
 41007e8:	f9400bf3 	ldr	x19, [sp,#16]
 41007ec:	a8c27bfd 	ldp	x29, x30, [sp],#32
 41007f0:	d65f03c0 	ret

00000000041007f4 <is_valid_dev>:
 41007f4:	b40001a0 	cbz	x0, 4100828 <is_valid_dev+0x34>
 41007f8:	f9400001 	ldr	x1, [x0]
 41007fc:	52800000 	mov	w0, #0x0                   	// #0
 4100800:	b4000181 	cbz	x1, 4100830 <is_valid_dev+0x3c>
 4100804:	f9400021 	ldr	x1, [x1]
 4100808:	b4000141 	cbz	x1, 4100830 <is_valid_dev+0x3c>
 410080c:	a9bf7bfd 	stp	x29, x30, [sp,#-16]!
 4100810:	910003fd 	mov	x29, sp
 4100814:	d63f0020 	blr	x1
 4100818:	71000c1f 	cmp	w0, #0x3
 410081c:	1a9f87e0 	cset	w0, ls
 4100820:	a8c17bfd 	ldp	x29, x30, [sp],#16
 4100824:	d65f03c0 	ret
 4100828:	52800000 	mov	w0, #0x0                   	// #0
 410082c:	d65f03c0 	ret
 4100830:	d65f03c0 	ret

0000000004100834 <is_valid_entity>:
 4100834:	b4000120 	cbz	x0, 4100858 <is_valid_entity+0x24>
 4100838:	a9bf7bfd 	stp	x29, x30, [sp,#-16]!
 410083c:	910003fd 	mov	x29, sp
 4100840:	f9400000 	ldr	x0, [x0]
 4100844:	97ffffec 	bl	41007f4 <is_valid_dev>
 4100848:	6b1f001f 	cmp	w0, wzr
 410084c:	1a9f07e0 	cset	w0, ne
 4100850:	a8c17bfd 	ldp	x29, x30, [sp],#16
 4100854:	d65f03c0 	ret
 4100858:	52800000 	mov	w0, #0x0                   	// #0
 410085c:	d65f03c0 	ret

0000000004100860 <free_entity>:
 4100860:	b5000160 	cbnz	x0, 410088c <free_entity+0x2c>
 4100864:	a9bf7bfd 	stp	x29, x30, [sp,#-16]!
 4100868:	d0000003 	adrp	x3, 4102000 <mmap_add_region+0x80>
 410086c:	d0000001 	adrp	x1, 4102000 <mmap_add_region+0x80>
 4100870:	d0000000 	adrp	x0, 4102000 <mmap_add_region+0x80>
 4100874:	910003fd 	mov	x29, sp
 4100878:	91226063 	add	x3, x3, #0x898
 410087c:	52801342 	mov	w2, #0x9a                  	// #154
 4100880:	912d5421 	add	x1, x1, #0xb55
 4100884:	91334000 	add	x0, x0, #0xcd0
 4100888:	940004f9 	bl	4101c6c <__assert>
 410088c:	d2800001 	mov	x1, #0x0                   	// #0
 4100890:	d0fff9c3 	adrp	x3, 403a000 <__BL1_RAM_START__>
 4100894:	91138062 	add	x2, x3, #0x4e0
 4100898:	f8617844 	ldr	x4, [x2,x1,lsl #3]
 410089c:	eb04001f 	cmp	x0, x4
 41008a0:	54000101 	b.ne	41008c0 <free_entity+0x60>
 41008a4:	f821585f 	str	xzr, [x2,w1,uxtw #3]
 41008a8:	d0fff9c1 	adrp	x1, 403a000 <__BL1_RAM_START__>
 41008ac:	b944d820 	ldr	w0, [x1,#1240]
 41008b0:	51000400 	sub	w0, w0, #0x1
 41008b4:	b904d820 	str	w0, [x1,#1240]
 41008b8:	52800000 	mov	w0, #0x0                   	// #0
 41008bc:	d65f03c0 	ret
 41008c0:	91000421 	add	x1, x1, #0x1
 41008c4:	f100103f 	cmp	x1, #0x4
 41008c8:	54fffe61 	b.ne	4100894 <free_entity+0x34>
 41008cc:	12800020 	mov	w0, #0xfffffffe            	// #-2
 41008d0:	d65f03c0 	ret

00000000041008d4 <io_register_device>:
 41008d4:	b5000160 	cbnz	x0, 4100900 <io_register_device+0x2c>
 41008d8:	a9bf7bfd 	stp	x29, x30, [sp,#-16]!
 41008dc:	d0000003 	adrp	x3, 4102000 <mmap_add_region+0x80>
 41008e0:	d0000001 	adrp	x1, 4102000 <mmap_add_region+0x80>
 41008e4:	d0000000 	adrp	x0, 4102000 <mmap_add_region+0x80>
 41008e8:	910003fd 	mov	x29, sp
 41008ec:	91242463 	add	x3, x3, #0x909
 41008f0:	52801582 	mov	w2, #0xac                  	// #172
 41008f4:	912d5421 	add	x1, x1, #0xb55
 41008f8:	912cc000 	add	x0, x0, #0xb30
 41008fc:	940004dc 	bl	4101c6c <__assert>
 4100900:	d0fff9c2 	adrp	x2, 403a000 <__BL1_RAM_START__>
 4100904:	12800160 	mov	w0, #0xfffffff4            	// #-12
 4100908:	b944dc41 	ldr	w1, [x2,#1244]
 410090c:	7100083f 	cmp	w1, #0x2
 4100910:	54000088 	b.hi	4100920 <io_register_device+0x4c>
 4100914:	11000421 	add	w1, w1, #0x1
 4100918:	52800000 	mov	w0, #0x0                   	// #0
 410091c:	b904dc41 	str	w1, [x2,#1244]
 4100920:	d65f03c0 	ret

0000000004100924 <io_dev_open>:
 4100924:	a9bf7bfd 	stp	x29, x30, [sp,#-16]!
 4100928:	910003fd 	mov	x29, sp
 410092c:	b5000122 	cbnz	x2, 4100950 <io_dev_open+0x2c>
 4100930:	d0000003 	adrp	x3, 4102000 <mmap_add_region+0x80>
 4100934:	d0000001 	adrp	x1, 4102000 <mmap_add_region+0x80>
 4100938:	d0000000 	adrp	x0, 4102000 <mmap_add_region+0x80>
 410093c:	912db463 	add	x3, x3, #0xb6d
 4100940:	528017a2 	mov	w2, #0xbd                  	// #189
 4100944:	912d5421 	add	x1, x1, #0xb55
 4100948:	91338000 	add	x0, x0, #0xce0
 410094c:	1400000b 	b	4100978 <io_dev_open+0x54>
 4100950:	b4000060 	cbz	x0, 410095c <io_dev_open+0x38>
 4100954:	f9400003 	ldr	x3, [x0]
 4100958:	b5000123 	cbnz	x3, 410097c <io_dev_open+0x58>
 410095c:	d0000003 	adrp	x3, 4102000 <mmap_add_region+0x80>
 4100960:	d0000001 	adrp	x1, 4102000 <mmap_add_region+0x80>
 4100964:	d0000000 	adrp	x0, 4102000 <mmap_add_region+0x80>
 4100968:	912df063 	add	x3, x3, #0xb7c
 410096c:	52800ca2 	mov	w2, #0x65                  	// #101
 4100970:	912d5421 	add	x1, x1, #0xb55
 4100974:	91348000 	add	x0, x0, #0xd20
 4100978:	940004bd 	bl	4101c6c <__assert>
 410097c:	aa0103e4 	mov	x4, x1
 4100980:	aa0203e1 	mov	x1, x2
 4100984:	a8c17bfd 	ldp	x29, x30, [sp],#16
 4100988:	aa0403e0 	mov	x0, x4
 410098c:	d61f0060 	br	x3

0000000004100990 <io_dev_init>:
 4100990:	a9be7bfd 	stp	x29, x30, [sp,#-32]!
 4100994:	910003fd 	mov	x29, sp
 4100998:	a90153f3 	stp	x19, x20, [sp,#16]
 410099c:	b50000a0 	cbnz	x0, 41009b0 <io_dev_init+0x20>
 41009a0:	d0000003 	adrp	x3, 4102000 <mmap_add_region+0x80>
 41009a4:	52801922 	mov	w2, #0xc9                  	// #201
 41009a8:	912e7063 	add	x3, x3, #0xb9c
 41009ac:	14000008 	b	41009cc <io_dev_init+0x3c>
 41009b0:	aa0003f3 	mov	x19, x0
 41009b4:	aa0103f4 	mov	x20, x1
 41009b8:	97ffff8f 	bl	41007f4 <is_valid_dev>
 41009bc:	35000120 	cbnz	w0, 41009e0 <io_dev_init+0x50>
 41009c0:	d0000003 	adrp	x3, 4102000 <mmap_add_region+0x80>
 41009c4:	52801942 	mov	w2, #0xca                  	// #202
 41009c8:	912ee863 	add	x3, x3, #0xbba
 41009cc:	d0000001 	adrp	x1, 4102000 <mmap_add_region+0x80>
 41009d0:	d0000000 	adrp	x0, 4102000 <mmap_add_region+0x80>
 41009d4:	912d5421 	add	x1, x1, #0xb55
 41009d8:	91344000 	add	x0, x0, #0xd10
 41009dc:	940004a4 	bl	4101c6c <__assert>
 41009e0:	f9400260 	ldr	x0, [x19]
 41009e4:	f9401c02 	ldr	x2, [x0,#56]
 41009e8:	b40000c2 	cbz	x2, 4100a00 <io_dev_init+0x70>
 41009ec:	aa1403e1 	mov	x1, x20
 41009f0:	aa1303e0 	mov	x0, x19
 41009f4:	a94153f3 	ldp	x19, x20, [sp,#16]
 41009f8:	a8c27bfd 	ldp	x29, x30, [sp],#32
 41009fc:	d61f0040 	br	x2
 4100a00:	52800000 	mov	w0, #0x0                   	// #0
 4100a04:	a94153f3 	ldp	x19, x20, [sp,#16]
 4100a08:	a8c27bfd 	ldp	x29, x30, [sp],#32
 4100a0c:	d65f03c0 	ret

0000000004100a10 <io_dev_close>:
 4100a10:	a9be7bfd 	stp	x29, x30, [sp,#-32]!
 4100a14:	910003fd 	mov	x29, sp
 4100a18:	f9000bf3 	str	x19, [sp,#16]
 4100a1c:	b50000a0 	cbnz	x0, 4100a30 <io_dev_close+0x20>
 4100a20:	d0000003 	adrp	x3, 4102000 <mmap_add_region+0x80>
 4100a24:	52801ba2 	mov	w2, #0xdd                  	// #221
 4100a28:	912e7063 	add	x3, x3, #0xb9c
 4100a2c:	14000007 	b	4100a48 <io_dev_close+0x38>
 4100a30:	aa0003f3 	mov	x19, x0
 4100a34:	97ffff70 	bl	41007f4 <is_valid_dev>
 4100a38:	35000120 	cbnz	w0, 4100a5c <io_dev_close+0x4c>
 4100a3c:	d0000003 	adrp	x3, 4102000 <mmap_add_region+0x80>
 4100a40:	52801bc2 	mov	w2, #0xde                  	// #222
 4100a44:	912ee863 	add	x3, x3, #0xbba
 4100a48:	d0000001 	adrp	x1, 4102000 <mmap_add_region+0x80>
 4100a4c:	d0000000 	adrp	x0, 4102000 <mmap_add_region+0x80>
 4100a50:	912d5421 	add	x1, x1, #0xb55
 4100a54:	912d2000 	add	x0, x0, #0xb48
 4100a58:	94000485 	bl	4101c6c <__assert>
 4100a5c:	f9400260 	ldr	x0, [x19]
 4100a60:	f9402001 	ldr	x1, [x0,#64]
 4100a64:	b40000a1 	cbz	x1, 4100a78 <io_dev_close+0x68>
 4100a68:	aa1303e0 	mov	x0, x19
 4100a6c:	f9400bf3 	ldr	x19, [sp,#16]
 4100a70:	a8c27bfd 	ldp	x29, x30, [sp],#32
 4100a74:	d61f0020 	br	x1
 4100a78:	52800000 	mov	w0, #0x0                   	// #0
 4100a7c:	f9400bf3 	ldr	x19, [sp,#16]
 4100a80:	a8c27bfd 	ldp	x29, x30, [sp],#32
 4100a84:	d65f03c0 	ret

0000000004100a88 <io_open>:
 4100a88:	a9bc7bfd 	stp	x29, x30, [sp,#-64]!
 4100a8c:	eb1f003f 	cmp	x1, xzr
 4100a90:	910003fd 	mov	x29, sp
 4100a94:	a90153f3 	stp	x19, x20, [sp,#16]
 4100a98:	a9025bf5 	stp	x21, x22, [sp,#32]
 4100a9c:	a90363f7 	stp	x23, x24, [sp,#48]
 4100aa0:	fa5f1044 	ccmp	x2, xzr, #0x4, ne
 4100aa4:	540000a1 	b.ne	4100ab8 <io_open+0x30>
 4100aa8:	d0000003 	adrp	x3, 4102000 <mmap_add_region+0x80>
 4100aac:	52801e42 	mov	w2, #0xf2                  	// #242
 4100ab0:	912f4c63 	add	x3, x3, #0xbd3
 4100ab4:	14000009 	b	4100ad8 <io_open+0x50>
 4100ab8:	aa0003f7 	mov	x23, x0
 4100abc:	aa0103f5 	mov	x21, x1
 4100ac0:	aa0203f6 	mov	x22, x2
 4100ac4:	97ffff4c 	bl	41007f4 <is_valid_dev>
 4100ac8:	35000120 	cbnz	w0, 4100aec <io_open+0x64>
 4100acc:	d0000003 	adrp	x3, 4102000 <mmap_add_region+0x80>
 4100ad0:	52801e62 	mov	w2, #0xf3                  	// #243
 4100ad4:	912ee863 	add	x3, x3, #0xbba
 4100ad8:	d0000001 	adrp	x1, 4102000 <mmap_add_region+0x80>
 4100adc:	d0000000 	adrp	x0, 4102000 <mmap_add_region+0x80>
 4100ae0:	912d5421 	add	x1, x1, #0xb55
 4100ae4:	9134c000 	add	x0, x0, #0xd30
 4100ae8:	94000461 	bl	4101c6c <__assert>
 4100aec:	d0fff9c0 	adrp	x0, 403a000 <__BL1_RAM_START__>
 4100af0:	aa0003e3 	mov	x3, x0
 4100af4:	b944d802 	ldr	w2, [x0,#1240]
 4100af8:	71000c5f 	cmp	w2, #0x3
 4100afc:	54000568 	b.hi	4100ba8 <io_open+0x120>
 4100b00:	d2800000 	mov	x0, #0x0                   	// #0
 4100b04:	d0fff9c4 	adrp	x4, 403a000 <__BL1_RAM_START__>
 4100b08:	91138081 	add	x1, x4, #0x4e0
 4100b0c:	f8607825 	ldr	x5, [x1,x0,lsl #3]
 4100b10:	b50001e5 	cbnz	x5, 4100b4c <io_open+0xc4>
 4100b14:	d0fff9d4 	adrp	x20, 403a000 <__BL1_RAM_START__>
 4100b18:	d37c7c18 	ubfiz	x24, x0, #4, #32
 4100b1c:	91140294 	add	x20, x20, #0x500
 4100b20:	11000442 	add	w2, w2, #0x1
 4100b24:	8b180293 	add	x19, x20, x24
 4100b28:	f8205833 	str	x19, [x1,w0,uxtw #3]
 4100b2c:	b904d862 	str	w2, [x3,#1240]
 4100b30:	f94002e0 	ldr	x0, [x23]
 4100b34:	f9400403 	ldr	x3, [x0,#8]
 4100b38:	b5000203 	cbnz	x3, 4100b78 <io_open+0xf0>
 4100b3c:	d0000003 	adrp	x3, 4102000 <mmap_add_region+0x80>
 4100b40:	52801f62 	mov	w2, #0xfb                  	// #251
 4100b44:	91300463 	add	x3, x3, #0xc01
 4100b48:	17ffffe4 	b	4100ad8 <io_open+0x50>
 4100b4c:	91000400 	add	x0, x0, #0x1
 4100b50:	f100101f 	cmp	x0, #0x4
 4100b54:	54fffda1 	b.ne	4100b08 <io_open+0x80>
 4100b58:	d0000003 	adrp	x3, 4102000 <mmap_add_region+0x80>
 4100b5c:	d0000001 	adrp	x1, 4102000 <mmap_add_region+0x80>
 4100b60:	d0000000 	adrp	x0, 4102000 <mmap_add_region+0x80>
 4100b64:	91386c63 	add	x3, x3, #0xe1b
 4100b68:	52801182 	mov	w2, #0x8c                  	// #140
 4100b6c:	912d5421 	add	x1, x1, #0xb55
 4100b70:	912c8000 	add	x0, x0, #0xb20
 4100b74:	17ffffdd 	b	4100ae8 <io_open+0x60>
 4100b78:	aa1503e1 	mov	x1, x21
 4100b7c:	aa1303e2 	mov	x2, x19
 4100b80:	aa1703e0 	mov	x0, x23
 4100b84:	d63f0060 	blr	x3
 4100b88:	2a0003f5 	mov	w21, w0
 4100b8c:	35000080 	cbnz	w0, 4100b9c <io_open+0x114>
 4100b90:	f8386a97 	str	x23, [x20,x24]
 4100b94:	f90002d3 	str	x19, [x22]
 4100b98:	14000005 	b	4100bac <io_open+0x124>
 4100b9c:	aa1303e0 	mov	x0, x19
 4100ba0:	97ffff30 	bl	4100860 <free_entity>
 4100ba4:	14000002 	b	4100bac <io_open+0x124>
 4100ba8:	12800175 	mov	w21, #0xfffffff4            	// #-12
 4100bac:	2a1503e0 	mov	w0, w21
 4100bb0:	a94153f3 	ldp	x19, x20, [sp,#16]
 4100bb4:	a9425bf5 	ldp	x21, x22, [sp,#32]
 4100bb8:	a94363f7 	ldp	x23, x24, [sp,#48]
 4100bbc:	a8c47bfd 	ldp	x29, x30, [sp],#64
 4100bc0:	d65f03c0 	ret

0000000004100bc4 <io_seek>:
 4100bc4:	a9bd7bfd 	stp	x29, x30, [sp,#-48]!
 4100bc8:	910003fd 	mov	x29, sp
 4100bcc:	a90153f3 	stp	x19, x20, [sp,#16]
 4100bd0:	f90013f5 	str	x21, [sp,#32]
 4100bd4:	aa0003f3 	mov	x19, x0
 4100bd8:	2a0103f4 	mov	w20, w1
 4100bdc:	aa0203f5 	mov	x21, x2
 4100be0:	97ffff15 	bl	4100834 <is_valid_entity>
 4100be4:	34000080 	cbz	w0, 4100bf4 <io_seek+0x30>
 4100be8:	51000680 	sub	w0, w20, #0x1
 4100bec:	7100081f 	cmp	w0, #0x2
 4100bf0:	54000129 	b.ls	4100c14 <io_seek+0x50>
 4100bf4:	d0000003 	adrp	x3, 4102000 <mmap_add_region+0x80>
 4100bf8:	d0000001 	adrp	x1, 4102000 <mmap_add_region+0x80>
 4100bfc:	d0000000 	adrp	x0, 4102000 <mmap_add_region+0x80>
 4100c00:	91306863 	add	x3, x3, #0xc1a
 4100c04:	52802182 	mov	w2, #0x10c                 	// #268
 4100c08:	912d5421 	add	x1, x1, #0xb55
 4100c0c:	912c6000 	add	x0, x0, #0xb18
 4100c10:	94000417 	bl	4101c6c <__assert>
 4100c14:	f9400260 	ldr	x0, [x19]
 4100c18:	f9400000 	ldr	x0, [x0]
 4100c1c:	f9400803 	ldr	x3, [x0,#16]
 4100c20:	b4000103 	cbz	x3, 4100c40 <io_seek+0x7c>
 4100c24:	aa1503e2 	mov	x2, x21
 4100c28:	2a1403e1 	mov	w1, w20
 4100c2c:	aa1303e0 	mov	x0, x19
 4100c30:	f94013f5 	ldr	x21, [sp,#32]
 4100c34:	a94153f3 	ldp	x19, x20, [sp,#16]
 4100c38:	a8c37bfd 	ldp	x29, x30, [sp],#48
 4100c3c:	d61f0060 	br	x3
 4100c40:	12800240 	mov	w0, #0xffffffed            	// #-19
 4100c44:	f94013f5 	ldr	x21, [sp,#32]
 4100c48:	a94153f3 	ldp	x19, x20, [sp,#16]
 4100c4c:	a8c37bfd 	ldp	x29, x30, [sp],#48
 4100c50:	d65f03c0 	ret

0000000004100c54 <io_size>:
 4100c54:	a9be7bfd 	stp	x29, x30, [sp,#-32]!
 4100c58:	910003fd 	mov	x29, sp
 4100c5c:	a90153f3 	stp	x19, x20, [sp,#16]
 4100c60:	aa0103f4 	mov	x20, x1
 4100c64:	aa0003f3 	mov	x19, x0
 4100c68:	97fffef3 	bl	4100834 <is_valid_entity>
 4100c6c:	6b1f001f 	cmp	w0, wzr
 4100c70:	fa5f1284 	ccmp	x20, xzr, #0x4, ne
 4100c74:	54000121 	b.ne	4100c98 <io_size+0x44>
 4100c78:	d0000003 	adrp	x3, 4102000 <mmap_add_region+0x80>
 4100c7c:	d0000001 	adrp	x1, 4102000 <mmap_add_region+0x80>
 4100c80:	d0000000 	adrp	x0, 4102000 <mmap_add_region+0x80>
 4100c84:	91313863 	add	x3, x3, #0xc4e
 4100c88:	528023a2 	mov	w2, #0x11d                 	// #285
 4100c8c:	912d5421 	add	x1, x1, #0xb55
 4100c90:	9133c000 	add	x0, x0, #0xcf0
 4100c94:	940003f6 	bl	4101c6c <__assert>
 4100c98:	f9400260 	ldr	x0, [x19]
 4100c9c:	f9400000 	ldr	x0, [x0]
 4100ca0:	f9400c02 	ldr	x2, [x0,#24]
 4100ca4:	b40000c2 	cbz	x2, 4100cbc <io_size+0x68>
 4100ca8:	aa1403e1 	mov	x1, x20
 4100cac:	aa1303e0 	mov	x0, x19
 4100cb0:	a94153f3 	ldp	x19, x20, [sp,#16]
 4100cb4:	a8c27bfd 	ldp	x29, x30, [sp],#32
 4100cb8:	d61f0040 	br	x2
 4100cbc:	12800240 	mov	w0, #0xffffffed            	// #-19
 4100cc0:	a94153f3 	ldp	x19, x20, [sp,#16]
 4100cc4:	a8c27bfd 	ldp	x29, x30, [sp],#32
 4100cc8:	d65f03c0 	ret

0000000004100ccc <io_read>:
 4100ccc:	a9bd7bfd 	stp	x29, x30, [sp,#-48]!
 4100cd0:	910003fd 	mov	x29, sp
 4100cd4:	a90153f3 	stp	x19, x20, [sp,#16]
 4100cd8:	a9025bf5 	stp	x21, x22, [sp,#32]
 4100cdc:	aa0003f3 	mov	x19, x0
 4100ce0:	aa0103f4 	mov	x20, x1
 4100ce4:	aa0203f5 	mov	x21, x2
 4100ce8:	aa0303f6 	mov	x22, x3
 4100cec:	97fffed2 	bl	4100834 <is_valid_entity>
 4100cf0:	350000a0 	cbnz	w0, 4100d04 <io_read+0x38>
 4100cf4:	d0000003 	adrp	x3, 4102000 <mmap_add_region+0x80>
 4100cf8:	52802622 	mov	w2, #0x131                 	// #305
 4100cfc:	9131e863 	add	x3, x3, #0xc7a
 4100d00:	14000005 	b	4100d14 <io_read+0x48>
 4100d04:	b5000134 	cbnz	x20, 4100d28 <io_read+0x5c>
 4100d08:	d0000003 	adrp	x3, 4102000 <mmap_add_region+0x80>
 4100d0c:	52802662 	mov	w2, #0x133                 	// #307
 4100d10:	9122ec63 	add	x3, x3, #0x8bb
 4100d14:	d0000001 	adrp	x1, 4102000 <mmap_add_region+0x80>
 4100d18:	d0000000 	adrp	x0, 4102000 <mmap_add_region+0x80>
 4100d1c:	912d5421 	add	x1, x1, #0xb55
 4100d20:	91342000 	add	x0, x0, #0xd08
 4100d24:	940003d2 	bl	4101c6c <__assert>
 4100d28:	f9400260 	ldr	x0, [x19]
 4100d2c:	f9400000 	ldr	x0, [x0]
 4100d30:	f9401004 	ldr	x4, [x0,#32]
 4100d34:	b4000124 	cbz	x4, 4100d58 <io_read+0x8c>
 4100d38:	aa1603e3 	mov	x3, x22
 4100d3c:	aa1503e2 	mov	x2, x21
 4100d40:	aa1403e1 	mov	x1, x20
 4100d44:	aa1303e0 	mov	x0, x19
 4100d48:	a9425bf5 	ldp	x21, x22, [sp,#32]
 4100d4c:	a94153f3 	ldp	x19, x20, [sp,#16]
 4100d50:	a8c37bfd 	ldp	x29, x30, [sp],#48
 4100d54:	d61f0080 	br	x4
 4100d58:	12800240 	mov	w0, #0xffffffed            	// #-19
 4100d5c:	a94153f3 	ldp	x19, x20, [sp,#16]
 4100d60:	a9425bf5 	ldp	x21, x22, [sp,#32]
 4100d64:	a8c37bfd 	ldp	x29, x30, [sp],#48
 4100d68:	d65f03c0 	ret

0000000004100d6c <io_close>:
 4100d6c:	a9be7bfd 	stp	x29, x30, [sp,#-32]!
 4100d70:	910003fd 	mov	x29, sp
 4100d74:	a90153f3 	stp	x19, x20, [sp,#16]
 4100d78:	aa0003f3 	mov	x19, x0
 4100d7c:	97fffeae 	bl	4100834 <is_valid_entity>
 4100d80:	35000120 	cbnz	w0, 4100da4 <io_close+0x38>
 4100d84:	d0000003 	adrp	x3, 4102000 <mmap_add_region+0x80>
 4100d88:	d0000001 	adrp	x1, 4102000 <mmap_add_region+0x80>
 4100d8c:	d0000000 	adrp	x0, 4102000 <mmap_add_region+0x80>
 4100d90:	9131e863 	add	x3, x3, #0xc7a
 4100d94:	52802b62 	mov	w2, #0x15b                 	// #347
 4100d98:	912d5421 	add	x1, x1, #0xb55
 4100d9c:	9133e000 	add	x0, x0, #0xcf8
 4100da0:	940003b3 	bl	4101c6c <__assert>
 4100da4:	f9400260 	ldr	x0, [x19]
 4100da8:	52800014 	mov	w20, #0x0                   	// #0
 4100dac:	f9400000 	ldr	x0, [x0]
 4100db0:	f9401801 	ldr	x1, [x0,#48]
 4100db4:	b4000081 	cbz	x1, 4100dc4 <io_close+0x58>
 4100db8:	aa1303e0 	mov	x0, x19
 4100dbc:	d63f0020 	blr	x1
 4100dc0:	2a0003f4 	mov	w20, w0
 4100dc4:	aa1303e0 	mov	x0, x19
 4100dc8:	97fffea6 	bl	4100860 <free_entity>
 4100dcc:	2a1403e0 	mov	w0, w20
 4100dd0:	a94153f3 	ldp	x19, x20, [sp,#16]
 4100dd4:	a8c27bfd 	ldp	x29, x30, [sp],#32
 4100dd8:	d65f03c0 	ret

0000000004100ddc <bl1_plat_sec_mem_layout>:
 4100ddc:	d0fff9c0 	adrp	x0, 403a000 <__BL1_RAM_START__>
 4100de0:	91150000 	add	x0, x0, #0x540
 4100de4:	d65f03c0 	ret

0000000004100de8 <marvell_bl1_early_platform_setup>:
 4100de8:	a9be7bfd 	stp	x29, x30, [sp,#-32]!
 4100dec:	52984002 	mov	w2, #0xc200                	// #49664
 4100df0:	52980001 	mov	w1, #0xc000                	// #49152
 4100df4:	d2840000 	mov	x0, #0x2000                	// #8192
 4100df8:	910003fd 	mov	x29, sp
 4100dfc:	72a00022 	movk	w2, #0x1, lsl #16
 4100e00:	72a03121 	movk	w1, #0x189, lsl #16
 4100e04:	f2ba0020 	movk	x0, #0xd001, lsl #16
 4100e08:	a90153f3 	stp	x19, x20, [sp,#16]
 4100e0c:	94000644 	bl	410271c <console_init>
 4100e10:	d0fff9d4 	adrp	x20, 403a000 <__BL1_RAM_START__>
 4100e14:	d0fff9c2 	adrp	x2, 403a000 <__BL1_RAM_START__>
 4100e18:	d2820001 	mov	x1, #0x1000                	// #4096
 4100e1c:	91150040 	add	x0, x2, #0x540
 4100e20:	f2a08001 	movk	x1, #0x400, lsl #16
 4100e24:	f0fff9f3 	adrp	x19, 403f000 <__BL1_RAM_END__>
 4100e28:	91000294 	add	x20, x20, #0x0
 4100e2c:	f902a041 	str	x1, [x2,#1344]
 4100e30:	b27417e2 	mov	x2, #0x3f000               	// #258048
 4100e34:	a9008402 	stp	x2, x1, [x0,#8]
 4100e38:	aa0003e1 	mov	x1, x0
 4100e3c:	91000273 	add	x19, x19, #0x0
 4100e40:	cb140273 	sub	x19, x19, x20
 4100e44:	91004000 	add	x0, x0, #0x10
 4100e48:	aa1303e3 	mov	x3, x19
 4100e4c:	f8018c22 	str	x2, [x1,#24]!
 4100e50:	aa1403e2 	mov	x2, x20
 4100e54:	a94153f3 	ldp	x19, x20, [sp,#16]
 4100e58:	a8c27bfd 	ldp	x29, x30, [sp],#32
 4100e5c:	14000235 	b	4101730 <reserve_mem>

0000000004100e60 <bl1_early_platform_setup>:
 4100e60:	17ffffe2 	b	4100de8 <marvell_bl1_early_platform_setup>

0000000004100e64 <marvell_bl1_plat_arch_setup>:
 4100e64:	d0fff9c0 	adrp	x0, 403a000 <__BL1_RAM_START__>
 4100e68:	d2a10203 	mov	x3, #0x8100000             	// #135266304
 4100e6c:	91150001 	add	x1, x0, #0x540
 4100e70:	d2a08202 	mov	x2, #0x4100000             	// #68157440
 4100e74:	f942a000 	ldr	x0, [x0,#1344]
 4100e78:	f9400421 	ldr	x1, [x1,#8]
 4100e7c:	140004fc 	b	410226c <arm_configure_mmu_el3>

0000000004100e80 <bl1_plat_arch_setup>:
 4100e80:	17fffff9 	b	4100e64 <marvell_bl1_plat_arch_setup>

0000000004100e84 <bl1_platform_setup>:
 4100e84:	14000060 	b	4101004 <plat_marvell_io_setup>

0000000004100e88 <bl1_plat_prepare_exit>:
 4100e88:	d65f03c0 	ret

0000000004100e8c <open_fip>:
 4100e8c:	a9bc7bfd 	stp	x29, x30, [sp,#-64]!
 4100e90:	d2800001 	mov	x1, #0x0                   	// #0
 4100e94:	910003fd 	mov	x29, sp
 4100e98:	a90153f3 	stp	x19, x20, [sp,#16]
 4100e9c:	d0fff9d4 	adrp	x20, 403a000 <__BL1_RAM_START__>
 4100ea0:	f90013f5 	str	x21, [sp,#32]
 4100ea4:	aa0003f5 	mov	x21, x0
 4100ea8:	f942b680 	ldr	x0, [x20,#1384]
 4100eac:	97fffeb9 	bl	4100990 <io_dev_init>
 4100eb0:	2a0003f3 	mov	w19, w0
 4100eb4:	35000120 	cbnz	w0, 4100ed8 <open_fip+0x4c>
 4100eb8:	f942b680 	ldr	x0, [x20,#1384]
 4100ebc:	9100e3a2 	add	x2, x29, #0x38
 4100ec0:	aa1503e1 	mov	x1, x21
 4100ec4:	97fffef1 	bl	4100a88 <io_open>
 4100ec8:	2a0003f3 	mov	w19, w0
 4100ecc:	35000060 	cbnz	w0, 4100ed8 <open_fip+0x4c>
 4100ed0:	f9401fa0 	ldr	x0, [x29,#56]
 4100ed4:	97ffffa6 	bl	4100d6c <io_close>
 4100ed8:	2a1303e0 	mov	w0, w19
 4100edc:	f94013f5 	ldr	x21, [sp,#32]
 4100ee0:	a94153f3 	ldp	x19, x20, [sp,#16]
 4100ee4:	a8c47bfd 	ldp	x29, x30, [sp],#64
 4100ee8:	d65f03c0 	ret

0000000004100eec <open_memmap>:
 4100eec:	a9bc7bfd 	stp	x29, x30, [sp,#-64]!
 4100ef0:	d2800001 	mov	x1, #0x0                   	// #0
 4100ef4:	910003fd 	mov	x29, sp
 4100ef8:	a90153f3 	stp	x19, x20, [sp,#16]
 4100efc:	d0fff9d4 	adrp	x20, 403a000 <__BL1_RAM_START__>
 4100f00:	f90013f5 	str	x21, [sp,#32]
 4100f04:	aa0003f5 	mov	x21, x0
 4100f08:	f942be80 	ldr	x0, [x20,#1400]
 4100f0c:	97fffea1 	bl	4100990 <io_dev_init>
 4100f10:	2a0003f3 	mov	w19, w0
 4100f14:	35000120 	cbnz	w0, 4100f38 <open_memmap+0x4c>
 4100f18:	f942be80 	ldr	x0, [x20,#1400]
 4100f1c:	9100e3a2 	add	x2, x29, #0x38
 4100f20:	aa1503e1 	mov	x1, x21
 4100f24:	97fffed9 	bl	4100a88 <io_open>
 4100f28:	2a0003f3 	mov	w19, w0
 4100f2c:	35000060 	cbnz	w0, 4100f38 <open_memmap+0x4c>
 4100f30:	f9401fa0 	ldr	x0, [x29,#56]
 4100f34:	97ffff8e 	bl	4100d6c <io_close>
 4100f38:	2a1303e0 	mov	w0, w19
 4100f3c:	f94013f5 	ldr	x21, [sp,#32]
 4100f40:	a94153f3 	ldp	x19, x20, [sp,#16]
 4100f44:	a8c47bfd 	ldp	x29, x30, [sp],#64
 4100f48:	d65f03c0 	ret

0000000004100f4c <marvell_io_setup>:
 4100f4c:	a9be7bfd 	stp	x29, x30, [sp,#-32]!
 4100f50:	910003fd 	mov	x29, sp
 4100f54:	a90153f3 	stp	x19, x20, [sp,#16]
 4100f58:	d0fff9d4 	adrp	x20, 403a000 <__BL1_RAM_START__>
 4100f5c:	9115c280 	add	x0, x20, #0x570
 4100f60:	97fffd50 	bl	41004a0 <register_io_dev_fip>
 4100f64:	340000a0 	cbz	w0, 4100f78 <marvell_io_setup+0x2c>
 4100f68:	d0000003 	adrp	x3, 4102000 <mmap_add_region+0x80>
 4100f6c:	52801722 	mov	w2, #0xb9                  	// #185
 4100f70:	91386063 	add	x3, x3, #0xe18
 4100f74:	14000008 	b	4100f94 <marvell_io_setup+0x48>
 4100f78:	d0fff9d3 	adrp	x19, 403a000 <__BL1_RAM_START__>
 4100f7c:	91158260 	add	x0, x19, #0x560
 4100f80:	97fffe06 	bl	4100798 <register_io_dev_memmap>
 4100f84:	34000120 	cbz	w0, 4100fa8 <marvell_io_setup+0x5c>
 4100f88:	d0000003 	adrp	x3, 4102000 <mmap_add_region+0x80>
 4100f8c:	52801782 	mov	w2, #0xbc                  	// #188
 4100f90:	91386063 	add	x3, x3, #0xe18
 4100f94:	d0000001 	adrp	x1, 4102000 <mmap_add_region+0x80>
 4100f98:	d0000000 	adrp	x0, 4102000 <mmap_add_region+0x80>
 4100f9c:	91389c21 	add	x1, x1, #0xe27
 4100fa0:	9134e000 	add	x0, x0, #0xd38
 4100fa4:	94000332 	bl	4101c6c <__assert>
 4100fa8:	d0fff9c2 	adrp	x2, 403a000 <__BL1_RAM_START__>
 4100fac:	f942ba80 	ldr	x0, [x20,#1392]
 4100fb0:	9115a042 	add	x2, x2, #0x568
 4100fb4:	d2800001 	mov	x1, #0x0                   	// #0
 4100fb8:	97fffe5b 	bl	4100924 <io_dev_open>
 4100fbc:	340000a0 	cbz	w0, 4100fd0 <marvell_io_setup+0x84>
 4100fc0:	d0000003 	adrp	x3, 4102000 <mmap_add_region+0x80>
 4100fc4:	52801822 	mov	w2, #0xc1                  	// #193
 4100fc8:	91386063 	add	x3, x3, #0xe18
 4100fcc:	17fffff2 	b	4100f94 <marvell_io_setup+0x48>
 4100fd0:	d0fff9c2 	adrp	x2, 403a000 <__BL1_RAM_START__>
 4100fd4:	f942b260 	ldr	x0, [x19,#1376]
 4100fd8:	9115e042 	add	x2, x2, #0x578
 4100fdc:	d2800001 	mov	x1, #0x0                   	// #0
 4100fe0:	97fffe51 	bl	4100924 <io_dev_open>
 4100fe4:	340000a0 	cbz	w0, 4100ff8 <marvell_io_setup+0xac>
 4100fe8:	d0000003 	adrp	x3, 4102000 <mmap_add_region+0x80>
 4100fec:	528018a2 	mov	w2, #0xc5                  	// #197
 4100ff0:	91386063 	add	x3, x3, #0xe18
 4100ff4:	17ffffe8 	b	4100f94 <marvell_io_setup+0x48>
 4100ff8:	a94153f3 	ldp	x19, x20, [sp,#16]
 4100ffc:	a8c27bfd 	ldp	x29, x30, [sp],#32
 4101000:	d65f03c0 	ret

0000000004101004 <plat_marvell_io_setup>:
 4101004:	17ffffd2 	b	4100f4c <marvell_io_setup>

0000000004101008 <plat_marvell_get_alt_image_source>:
 4101008:	12800020 	mov	w0, #0xfffffffe            	// #-2
 410100c:	d65f03c0 	ret

0000000004101010 <plat_get_image_source>:
 4101010:	a9bc7bfd 	stp	x29, x30, [sp,#-64]!
 4101014:	7100141f 	cmp	w0, #0x5
 4101018:	910003fd 	mov	x29, sp
 410101c:	a90153f3 	stp	x19, x20, [sp,#16]
 4101020:	a9025bf5 	stp	x21, x22, [sp,#32]
 4101024:	a90363f7 	stp	x23, x24, [sp,#48]
 4101028:	54000129 	b.ls	410104c <plat_get_image_source+0x3c>
 410102c:	b0000003 	adrp	x3, 4102000 <mmap_add_region+0x80>
 4101030:	b0000001 	adrp	x1, 4102000 <mmap_add_region+0x80>
 4101034:	b0000000 	adrp	x0, 4102000 <mmap_add_region+0x80>
 4101038:	91394063 	add	x3, x3, #0xe50
 410103c:	52801c22 	mov	w2, #0xe1                  	// #225
 4101040:	91389c21 	add	x1, x1, #0xe27
 4101044:	9135c000 	add	x0, x0, #0xd70
 4101048:	94000309 	bl	4101c6c <__assert>
 410104c:	2a0003f5 	mov	w21, w0
 4101050:	d2800313 	mov	x19, #0x18                  	// #24
 4101054:	2a0003e0 	mov	w0, w0
 4101058:	b0000014 	adrp	x20, 4102000 <mmap_add_region+0x80>
 410105c:	91362294 	add	x20, x20, #0xd88
 4101060:	aa0103f6 	mov	x22, x1
 4101064:	9b137c13 	mul	x19, x0, x19
 4101068:	aa0203f7 	mov	x23, x2
 410106c:	8b130280 	add	x0, x20, x19
 4101070:	a9408418 	ldp	x24, x1, [x0,#8]
 4101074:	aa1803e0 	mov	x0, x24
 4101078:	d63f0020 	blr	x1
 410107c:	35000140 	cbnz	w0, 41010a4 <plat_get_image_source+0x94>
 4101080:	f8736a81 	ldr	x1, [x20,x19]
 4101084:	f90002f8 	str	x24, [x23]
 4101088:	a94153f3 	ldp	x19, x20, [sp,#16]
 410108c:	f9400021 	ldr	x1, [x1]
 4101090:	f90002c1 	str	x1, [x22]
 4101094:	a94363f7 	ldp	x23, x24, [sp,#48]
 4101098:	a9425bf5 	ldp	x21, x22, [sp,#32]
 410109c:	a8c47bfd 	ldp	x29, x30, [sp],#64
 41010a0:	d65f03c0 	ret
 41010a4:	aa1703e2 	mov	x2, x23
 41010a8:	aa1603e1 	mov	x1, x22
 41010ac:	2a1503e0 	mov	w0, w21
 41010b0:	a94153f3 	ldp	x19, x20, [sp,#16]
 41010b4:	a9425bf5 	ldp	x21, x22, [sp,#32]
 41010b8:	a94363f7 	ldp	x23, x24, [sp,#48]
 41010bc:	a8c47bfd 	ldp	x29, x30, [sp],#64
 41010c0:	17ffffd2 	b	4101008 <plat_marvell_get_alt_image_source>

00000000041010c4 <bl1_init_bl2_mem_layout>:
 41010c4:	a9bd7bfd 	stp	x29, x30, [sp,#-48]!
 41010c8:	910003fd 	mov	x29, sp
 41010cc:	a90153f3 	stp	x19, x20, [sp,#16]
 41010d0:	f90013f5 	str	x21, [sp,#32]
 41010d4:	aa0103f3 	mov	x19, x1
 41010d8:	b0fff9d4 	adrp	x20, 403a000 <__BL1_RAM_START__>
 41010dc:	d0fff9e1 	adrp	x1, 403f000 <__BL1_RAM_END__>
 41010e0:	91000021 	add	x1, x1, #0x0
 41010e4:	91000294 	add	x20, x20, #0x0
 41010e8:	cb140035 	sub	x21, x1, x20
 41010ec:	b50000a0 	cbnz	x0, 4101100 <bl1_init_bl2_mem_layout+0x3c>
 41010f0:	b0000003 	adrp	x3, 4102000 <mmap_add_region+0x80>
 41010f4:	52800882 	mov	w2, #0x44                  	// #68
 41010f8:	913ba063 	add	x3, x3, #0xee8
 41010fc:	14000005 	b	4101110 <bl1_init_bl2_mem_layout+0x4c>
 4101100:	b5000133 	cbnz	x19, 4101124 <bl1_init_bl2_mem_layout+0x60>
 4101104:	b0000003 	adrp	x3, 4102000 <mmap_add_region+0x80>
 4101108:	528008a2 	mov	w2, #0x45                  	// #69
 410110c:	913c3863 	add	x3, x3, #0xf0e
 4101110:	b0000001 	adrp	x1, 4102000 <mmap_add_region+0x80>
 4101114:	b0000000 	adrp	x0, 4102000 <mmap_add_region+0x80>
 4101118:	913bfc21 	add	x1, x1, #0xeff
 410111c:	913a8000 	add	x0, x0, #0xea0
 4101120:	940002d3 	bl	4101c6c <__assert>
 4101124:	f9400802 	ldr	x2, [x0,#16]
 4101128:	eb02003f 	cmp	x1, x2
 410112c:	54000129 	b.ls	4101150 <bl1_init_bl2_mem_layout+0x8c>
 4101130:	f9400c01 	ldr	x1, [x0,#24]
 4101134:	8b010041 	add	x1, x2, x1
 4101138:	eb01029f 	cmp	x20, x1
 410113c:	540000a2 	b.cs	4101150 <bl1_init_bl2_mem_layout+0x8c>
 4101140:	b0000003 	adrp	x3, 4102000 <mmap_add_region+0x80>
 4101144:	52800942 	mov	w2, #0x4a                  	// #74
 4101148:	913c9463 	add	x3, x3, #0xf25
 410114c:	17fffff1 	b	4101110 <bl1_init_bl2_mem_layout+0x4c>
 4101150:	aa0003e1 	mov	x1, x0
 4101154:	d2800402 	mov	x2, #0x20                  	// #32
 4101158:	aa1303e0 	mov	x0, x19
 410115c:	940002df 	bl	4101cd8 <memcpy>
 4101160:	aa1503e3 	mov	x3, x21
 4101164:	aa1403e2 	mov	x2, x20
 4101168:	91002261 	add	x1, x19, #0x8
 410116c:	aa1303e0 	mov	x0, x19
 4101170:	94000170 	bl	4101730 <reserve_mem>
 4101174:	f94013f5 	ldr	x21, [sp,#32]
 4101178:	aa1303e0 	mov	x0, x19
 410117c:	d2800401 	mov	x1, #0x20                  	// #32
 4101180:	a94153f3 	ldp	x19, x20, [sp,#16]
 4101184:	a8c37bfd 	ldp	x29, x30, [sp],#48
 4101188:	1400052a 	b	4102630 <flush_dcache_range>

000000000410118c <bl1_main>:
 410118c:	a9bd7bfd 	stp	x29, x30, [sp,#-48]!
 4101190:	b0000000 	adrp	x0, 4102000 <mmap_add_region+0x80>
 4101194:	910003fd 	mov	x29, sp
 4101198:	913e7400 	add	x0, x0, #0xf9d
 410119c:	a90153f3 	stp	x19, x20, [sp,#16]
 41011a0:	a9025bf5 	stp	x21, x22, [sp,#32]
 41011a4:	b0000013 	adrp	x19, 4102000 <mmap_add_region+0x80>
 41011a8:	94000210 	bl	41019e8 <tf_printf>
 41011ac:	913f0273 	add	x19, x19, #0xfc0
 41011b0:	b0000001 	adrp	x1, 4102000 <mmap_add_region+0x80>
 41011b4:	aa1303e0 	mov	x0, x19
 41011b8:	91204021 	add	x1, x1, #0x810
 41011bc:	9400020b 	bl	41019e8 <tf_printf>
 41011c0:	b0000001 	adrp	x1, 4102000 <mmap_add_region+0x80>
 41011c4:	aa1303e0 	mov	x0, x19
 41011c8:	9120c021 	add	x1, x1, #0x830
 41011cc:	94000207 	bl	41019e8 <tf_printf>
 41011d0:	d53e1000 	mrs	x0, sctlr_el3
 41011d4:	370000a0 	tbnz	w0, #0, 41011e8 <bl1_main+0x5c>
 41011d8:	b0000003 	adrp	x3, 4102000 <mmap_add_region+0x80>
 41011dc:	52800da2 	mov	w2, #0x6d                  	// #109
 41011e0:	913f4863 	add	x3, x3, #0xfd2
 41011e4:	14000005 	b	41011f8 <bl1_main+0x6c>
 41011e8:	37100120 	tbnz	w0, #2, 410120c <bl1_main+0x80>
 41011ec:	b0000003 	adrp	x3, 4102000 <mmap_add_region+0x80>
 41011f0:	52800dc2 	mov	w2, #0x6e                  	// #110
 41011f4:	913f9063 	add	x3, x3, #0xfe4
 41011f8:	b0000001 	adrp	x1, 4102000 <mmap_add_region+0x80>
 41011fc:	b0000000 	adrp	x0, 4102000 <mmap_add_region+0x80>
 4101200:	913bfc21 	add	x1, x1, #0xeff
 4101204:	913ae000 	add	x0, x0, #0xeb8
 4101208:	94000299 	bl	4101c6c <__assert>
 410120c:	376000a0 	tbnz	w0, #12, 4101220 <bl1_main+0x94>
 4101210:	b0000003 	adrp	x3, 4102000 <mmap_add_region+0x80>
 4101214:	52800de2 	mov	w2, #0x6f                  	// #111
 4101218:	913fd863 	add	x3, x3, #0xff6
 410121c:	17fffff7 	b	41011f8 <bl1_main+0x6c>
 4101220:	d53b0020 	mrs	x0, ctr_el0
 4101224:	d3586c00 	ubfx	x0, x0, #24, #4
 4101228:	b4000120 	cbz	x0, 410124c <bl1_main+0xc0>
 410122c:	52800081 	mov	w1, #0x4                   	// #4
 4101230:	1ac02020 	lsl	w0, w1, w0
 4101234:	7101001f 	cmp	w0, #0x40
 4101238:	540000a0 	b.eq	410124c <bl1_main+0xc0>
 410123c:	d0000003 	adrp	x3, 4103000 <bl1_svc_uid+0x128>
 4101240:	52800f62 	mov	w2, #0x7b                  	// #123
 4101244:	91002063 	add	x3, x3, #0x8
 4101248:	17ffffec 	b	41011f8 <bl1_main+0x6c>
 410124c:	94000052 	bl	4101394 <bl1_arch_setup>
 4101250:	97ffff0d 	bl	4100e84 <bl1_platform_setup>
 4101254:	94000134 	bl	4101724 <bl1_plat_get_next_image_id>
 4101258:	7100041f 	cmp	w0, #0x1
 410125c:	2a0003f4 	mov	w20, w0
 4101260:	54000461 	b.ne	41012ec <bl1_main+0x160>
 4101264:	940002c2 	bl	4101d6c <bl1_plat_get_image_desc>
 4101268:	aa0003f3 	mov	x19, x0
 410126c:	b5000120 	cbnz	x0, 4101290 <bl1_main+0x104>
 4101270:	d0000003 	adrp	x3, 4103000 <bl1_svc_uid+0x128>
 4101274:	b0000001 	adrp	x1, 4102000 <mmap_add_region+0x80>
 4101278:	b0000000 	adrp	x0, 4102000 <mmap_add_region+0x80>
 410127c:	9100f463 	add	x3, x3, #0x3d
 4101280:	52801562 	mov	w2, #0xab                  	// #171
 4101284:	913bfc21 	add	x1, x1, #0xeff
 4101288:	913b2000 	add	x0, x0, #0xec8
 410128c:	17ffffdf 	b	4101208 <bl1_main+0x7c>
 4101290:	97fffed3 	bl	4100ddc <bl1_plat_sec_mem_layout>
 4101294:	91008275 	add	x21, x19, #0x20
 4101298:	91002263 	add	x3, x19, #0x8
 410129c:	f9400462 	ldr	x2, [x3,#8]
 41012a0:	aa1503e4 	mov	x4, x21
 41012a4:	2a1403e1 	mov	w1, w20
 41012a8:	aa0003f6 	mov	x22, x0
 41012ac:	940001b0 	bl	410196c <load_auth_image>
 41012b0:	2a0003f3 	mov	w19, w0
 41012b4:	340000c0 	cbz	w0, 41012cc <bl1_main+0x140>
 41012b8:	d0000000 	adrp	x0, 4103000 <bl1_svc_uid+0x128>
 41012bc:	91012000 	add	x0, x0, #0x48
 41012c0:	940001ca 	bl	41019e8 <tf_printf>
 41012c4:	2a1303e0 	mov	w0, w19
 41012c8:	94000514 	bl	4102718 <plat_error_handler>
 41012cc:	f9400ad3 	ldr	x19, [x22,#16]
 41012d0:	aa1603e0 	mov	x0, x22
 41012d4:	aa1303e1 	mov	x1, x19
 41012d8:	97ffff7b 	bl	41010c4 <bl1_init_bl2_mem_layout>
 41012dc:	f90012b3 	str	x19, [x21,#32]
 41012e0:	d0000000 	adrp	x0, 4103000 <bl1_svc_uid+0x128>
 41012e4:	9101bc00 	add	x0, x0, #0x6f
 41012e8:	14000003 	b	41012f4 <bl1_main+0x168>
 41012ec:	d0000000 	adrp	x0, 4103000 <bl1_svc_uid+0x128>
 41012f0:	91022800 	add	x0, x0, #0x8a
 41012f4:	940001bd 	bl	41019e8 <tf_printf>
 41012f8:	2a1403e0 	mov	w0, w20
 41012fc:	a9425bf5 	ldp	x21, x22, [sp,#32]
 4101300:	a94153f3 	ldp	x19, x20, [sp,#16]
 4101304:	a8c37bfd 	ldp	x29, x30, [sp],#48
 4101308:	14000046 	b	4101420 <bl1_prepare_next_image>

000000000410130c <bl1_print_bl31_ep_info>:
 410130c:	a9be7bfd 	stp	x29, x30, [sp,#-32]!
 4101310:	910003fd 	mov	x29, sp
 4101314:	f9000bf3 	str	x19, [sp,#16]
 4101318:	aa0003f3 	mov	x19, x0
 410131c:	d0000000 	adrp	x0, 4103000 <bl1_svc_uid+0x128>
 4101320:	9102fc00 	add	x0, x0, #0xbf
 4101324:	940001b1 	bl	41019e8 <tf_printf>
 4101328:	aa1303e0 	mov	x0, x19
 410132c:	f9400bf3 	ldr	x19, [sp,#16]
 4101330:	a8c27bfd 	ldp	x29, x30, [sp],#32
 4101334:	1400018f 	b	4101970 <print_entry_point_info>

0000000004101338 <bl1_smc_handler>:
 4101338:	7100041f 	cmp	w0, #0x1
 410133c:	54000100 	b.eq	410135c <bl1_smc_handler+0x24>
 4101340:	340000a0 	cbz	w0, 4101354 <bl1_smc_handler+0x1c>
 4101344:	71000c1f 	cmp	w0, #0x3
 4101348:	540001e1 	b.ne	4101384 <bl1_smc_handler+0x4c>
 410134c:	d2800020 	mov	x0, #0x1                   	// #1
 4101350:	1400000e 	b	4101388 <bl1_smc_handler+0x50>
 4101354:	d2800080 	mov	x0, #0x4                   	// #4
 4101358:	1400000c 	b	4101388 <bl1_smc_handler+0x50>
 410135c:	b0000000 	adrp	x0, 4102000 <mmap_add_region+0x80>
 4101360:	913b6000 	add	x0, x0, #0xed8
 4101364:	b9400c01 	ldr	w1, [x0,#12]
 4101368:	f9000cc1 	str	x1, [x6,#24]
 410136c:	b9400801 	ldr	w1, [x0,#8]
 4101370:	b9400400 	ldr	w0, [x0,#4]
 4101374:	a90084c0 	stp	x0, x1, [x6,#8]
 4101378:	d28cfa80 	mov	x0, #0x67d4                	// #26580
 410137c:	f2bfa720 	movk	x0, #0xfd39, lsl #16
 4101380:	14000002 	b	4101388 <bl1_smc_handler+0x50>
 4101384:	b2407fe0 	mov	x0, #0xffffffff            	// #4294967295
 4101388:	f90000c0 	str	x0, [x6]
 410138c:	aa0603e0 	mov	x0, x6
 4101390:	d65f03c0 	ret

0000000004101394 <bl1_arch_setup>:
 4101394:	d2808600 	mov	x0, #0x430                 	// #1072
 4101398:	d51e1100 	msr	scr_el3, x0
 410139c:	d65f03c0 	ret

00000000041013a0 <cm_get_context>:
 41013a0:	7100041f 	cmp	w0, #0x1
 41013a4:	54000169 	b.ls	41013d0 <cm_get_context+0x30>
 41013a8:	a9bf7bfd 	stp	x29, x30, [sp,#-16]!
 41013ac:	d0000003 	adrp	x3, 4103000 <bl1_svc_uid+0x128>
 41013b0:	d0000001 	adrp	x1, 4103000 <bl1_svc_uid+0x128>
 41013b4:	d0000000 	adrp	x0, 4103000 <bl1_svc_uid+0x128>
 41013b8:	910003fd 	mov	x29, sp
 41013bc:	9103bc63 	add	x3, x3, #0xef
 41013c0:	52800622 	mov	w2, #0x31                  	// #49
 41013c4:	91044821 	add	x1, x1, #0x112
 41013c8:	91038000 	add	x0, x0, #0xe0
 41013cc:	94000228 	bl	4101c6c <__assert>
 41013d0:	b0fff9c1 	adrp	x1, 403a000 <__BL1_RAM_START__>
 41013d4:	91160021 	add	x1, x1, #0x580
 41013d8:	f8605820 	ldr	x0, [x1,w0,uxtw #3]
 41013dc:	d65f03c0 	ret

00000000041013e0 <cm_set_context>:
 41013e0:	7100043f 	cmp	w1, #0x1
 41013e4:	54000169 	b.ls	4101410 <cm_set_context+0x30>
 41013e8:	a9bf7bfd 	stp	x29, x30, [sp,#-16]!
 41013ec:	d0000003 	adrp	x3, 4103000 <bl1_svc_uid+0x128>
 41013f0:	d0000001 	adrp	x1, 4103000 <bl1_svc_uid+0x128>
 41013f4:	d0000000 	adrp	x0, 4103000 <bl1_svc_uid+0x128>
 41013f8:	910003fd 	mov	x29, sp
 41013fc:	9103bc63 	add	x3, x3, #0xef
 4101400:	528006e2 	mov	w2, #0x37                  	// #55
 4101404:	91044821 	add	x1, x1, #0x112
 4101408:	9104c000 	add	x0, x0, #0x130
 410140c:	94000218 	bl	4101c6c <__assert>
 4101410:	b0fff9c2 	adrp	x2, 403a000 <__BL1_RAM_START__>
 4101414:	91160042 	add	x2, x2, #0x580
 4101418:	f8215840 	str	x0, [x2,w1,uxtw #3]
 410141c:	d65f03c0 	ret

0000000004101420 <bl1_prepare_next_image>:
 4101420:	a9bd7bfd 	stp	x29, x30, [sp,#-48]!
 4101424:	910003fd 	mov	x29, sp
 4101428:	a9025bf5 	stp	x21, x22, [sp,#32]
 410142c:	a90153f3 	stp	x19, x20, [sp,#16]
 4101430:	2a0003f6 	mov	w22, w0
 4101434:	9400024e 	bl	4101d6c <bl1_plat_get_image_desc>
 4101438:	b5000120 	cbnz	x0, 410145c <bl1_prepare_next_image+0x3c>
 410143c:	d0000003 	adrp	x3, 4103000 <bl1_svc_uid+0x128>
 4101440:	d0000001 	adrp	x1, 4103000 <bl1_svc_uid+0x128>
 4101444:	d0000000 	adrp	x0, 4103000 <bl1_svc_uid+0x128>
 4101448:	9100f463 	add	x3, x3, #0x3d
 410144c:	528008e2 	mov	w2, #0x47                  	// #71
 4101450:	91044821 	add	x1, x1, #0x112
 4101454:	91050000 	add	x0, x0, #0x140
 4101458:	94000205 	bl	4101c6c <__assert>
 410145c:	91008013 	add	x19, x0, #0x20
 4101460:	b9400674 	ldr	w20, [x19,#4]
 4101464:	aa0003f5 	mov	x21, x0
 4101468:	12000294 	and	w20, w20, #0x1
 410146c:	2a1403e0 	mov	w0, w20
 4101470:	97ffffcc 	bl	41013a0 <cm_get_context>
 4101474:	b5000100 	cbnz	x0, 4101494 <bl1_prepare_next_image+0x74>
 4101478:	b0fff9c2 	adrp	x2, 403a000 <__BL1_RAM_START__>
 410147c:	2a1403e0 	mov	w0, w20
 4101480:	d2804203 	mov	x3, #0x210                 	// #528
 4101484:	91164042 	add	x2, x2, #0x590
 4101488:	2a1403e1 	mov	w1, w20
 410148c:	9b030800 	madd	x0, x0, x3, x2
 4101490:	97ffffd4 	bl	41013e0 <cm_set_context>
 4101494:	340000d4 	cbz	w20, 41014ac <bl1_prepare_next_image+0x8c>
 4101498:	d5380400 	mrs	x0, id_aa64pfr0_el1
 410149c:	f2780c1f 	tst	x0, #0xf00
 41014a0:	54000060 	b.eq	41014ac <bl1_prepare_next_image+0x8c>
 41014a4:	52807920 	mov	w0, #0x3c9                 	// #969
 41014a8:	14000002 	b	41014b0 <bl1_prepare_next_image+0x90>
 41014ac:	528078a0 	mov	w0, #0x3c5                 	// #965
 41014b0:	aa1303e1 	mov	x1, x19
 41014b4:	b9001260 	str	w0, [x19,#16]
 41014b8:	2a1603e0 	mov	w0, w22
 41014bc:	9400009c 	bl	410172c <bl1_plat_set_ep_info>
 41014c0:	aa1303e0 	mov	x0, x19
 41014c4:	9400004b 	bl	41015f0 <cm_init_my_context>
 41014c8:	2a1403e0 	mov	w0, w20
 41014cc:	94000054 	bl	410161c <cm_prepare_el3_exit>
 41014d0:	52800080 	mov	w0, #0x4                   	// #4
 41014d4:	b9007aa0 	str	w0, [x21,#120]
 41014d8:	aa1303e0 	mov	x0, x19
 41014dc:	a9425bf5 	ldp	x21, x22, [sp,#32]
 41014e0:	a94153f3 	ldp	x19, x20, [sp,#16]
 41014e4:	a8c37bfd 	ldp	x29, x30, [sp],#48
 41014e8:	14000122 	b	4101970 <print_entry_point_info>

00000000041014ec <cm_init_context_common>:
 41014ec:	a9bd7bfd 	stp	x29, x30, [sp,#-48]!
 41014f0:	910003fd 	mov	x29, sp
 41014f4:	a90153f3 	stp	x19, x20, [sp,#16]
 41014f8:	f90013f5 	str	x21, [sp,#32]
 41014fc:	b5000120 	cbnz	x0, 4101520 <cm_init_context_common+0x34>
 4101500:	d0000003 	adrp	x3, 4103000 <bl1_svc_uid+0x128>
 4101504:	d0000001 	adrp	x1, 4103000 <bl1_svc_uid+0x128>
 4101508:	d0000000 	adrp	x0, 4103000 <bl1_svc_uid+0x128>
 410150c:	91055c63 	add	x3, x3, #0x157
 4101510:	52800b22 	mov	w2, #0x59                  	// #89
 4101514:	91056c21 	add	x1, x1, #0x15b
 4101518:	91076000 	add	x0, x0, #0x1d8
 410151c:	940001d4 	bl	4101c6c <__assert>
 4101520:	aa0103f4 	mov	x20, x1
 4101524:	d2804202 	mov	x2, #0x210                 	// #528
 4101528:	52800001 	mov	w1, #0x0                   	// #0
 410152c:	aa0003f3 	mov	x19, x0
 4101530:	b9400695 	ldr	w21, [x20,#4]
 4101534:	940001d5 	bl	4101c88 <memset>
 4101538:	120002b5 	and	w21, w21, #0x1
 410153c:	d53e1100 	mrs	x0, scr_el3
 4101540:	1281a0e1 	mov	w1, #0xfffff2f8            	// #-3336
 4101544:	b9401282 	ldr	w2, [x20,#16]
 4101548:	0a000020 	and	w0, w1, w0
 410154c:	2a150000 	orr	w0, w0, w21
 4101550:	d3441043 	ubfx	x3, x2, #4, #1
 4101554:	32160001 	orr	w1, w0, #0x400
 4101558:	6b1f007f 	cmp	w3, wzr
 410155c:	9a800020 	csel	x0, x1, x0, eq
 4101560:	b9400681 	ldr	w1, [x20,#4]
 4101564:	32150004 	orr	w4, w0, #0x800
 4101568:	121e0025 	and	w5, w1, #0x4
 410156c:	121f0021 	and	w1, w1, #0x2
 4101570:	6b1f00bf 	cmp	w5, wzr
 4101574:	9a801080 	csel	x0, x4, x0, ne
 4101578:	6b1f003f 	cmp	w1, wzr
 410157c:	d2a04001 	mov	x1, #0x2000000             	// #33554432
 4101580:	9a9f1021 	csel	x1, x1, xzr, ne
 4101584:	35000083 	cbnz	w3, 4101594 <cm_init_context_common+0xa8>
 4101588:	d2810004 	mov	x4, #0x800                 	// #2048
 410158c:	f2a61a04 	movk	x4, #0x30d0, lsl #16
 4101590:	14000003 	b	410159c <cm_init_context_common+0xb0>
 4101594:	d2810304 	mov	x4, #0x818                 	// #2072
 4101598:	f2a01804 	movk	x4, #0xc0, lsl #16
 410159c:	aa040021 	orr	x1, x1, x4
 41015a0:	f900aa61 	str	x1, [x19,#336]
 41015a4:	35000083 	cbnz	w3, 41015b4 <cm_init_context_common+0xc8>
 41015a8:	d3420c41 	ubfx	x1, x2, #2, #2
 41015ac:	7100083f 	cmp	w1, #0x2
 41015b0:	14000003 	b	41015bc <cm_init_context_common+0xd0>
 41015b4:	12000c41 	and	w1, w2, #0xf
 41015b8:	7100283f 	cmp	w1, #0xa
 41015bc:	54000041 	b.ne	41015c4 <cm_init_context_common+0xd8>
 41015c0:	32180000 	orr	w0, w0, #0x100
 41015c4:	f94013f5 	ldr	x21, [sp,#32]
 41015c8:	2a0203e2 	mov	w2, w2
 41015cc:	f9008260 	str	x0, [x19,#256]
 41015d0:	91006281 	add	x1, x20, #0x18
 41015d4:	f9400680 	ldr	x0, [x20,#8]
 41015d8:	a9110262 	stp	x2, x0, [x19,#272]
 41015dc:	aa1303e0 	mov	x0, x19
 41015e0:	d2800802 	mov	x2, #0x40                  	// #64
 41015e4:	a94153f3 	ldp	x19, x20, [sp,#16]
 41015e8:	a8c37bfd 	ldp	x29, x30, [sp],#48
 41015ec:	140001bb 	b	4101cd8 <memcpy>

00000000041015f0 <cm_init_my_context>:
 41015f0:	a9be7bfd 	stp	x29, x30, [sp,#-32]!
 41015f4:	910003fd 	mov	x29, sp
 41015f8:	f9000bf3 	str	x19, [sp,#16]
 41015fc:	aa0003f3 	mov	x19, x0
 4101600:	b9400400 	ldr	w0, [x0,#4]
 4101604:	12000000 	and	w0, w0, #0x1
 4101608:	97ffff66 	bl	41013a0 <cm_get_context>
 410160c:	aa1303e1 	mov	x1, x19
 4101610:	f9400bf3 	ldr	x19, [sp,#16]
 4101614:	a8c27bfd 	ldp	x29, x30, [sp],#32
 4101618:	17ffffb5 	b	41014ec <cm_init_context_common>

000000000410161c <cm_prepare_el3_exit>:
 410161c:	a9be7bfd 	stp	x29, x30, [sp,#-32]!
 4101620:	910003fd 	mov	x29, sp
 4101624:	a90153f3 	stp	x19, x20, [sp,#16]
 4101628:	2a0003f4 	mov	w20, w0
 410162c:	97ffff5d 	bl	41013a0 <cm_get_context>
 4101630:	b5000120 	cbnz	x0, 4101654 <cm_prepare_el3_exit+0x38>
 4101634:	d0000003 	adrp	x3, 4103000 <bl1_svc_uid+0x128>
 4101638:	d0000001 	adrp	x1, 4103000 <bl1_svc_uid+0x128>
 410163c:	d0000000 	adrp	x0, 4103000 <bl1_svc_uid+0x128>
 4101640:	91055c63 	add	x3, x3, #0x157
 4101644:	52801982 	mov	w2, #0xcc                  	// #204
 4101648:	91056c21 	add	x1, x1, #0x15b
 410164c:	91082000 	add	x0, x0, #0x208
 4101650:	1400002e 	b	4101708 <cm_prepare_el3_exit+0xec>
 4101654:	7100069f 	cmp	w20, #0x1
 4101658:	aa0003f3 	mov	x19, x0
 410165c:	54000401 	b.ne	41016dc <cm_prepare_el3_exit+0xc0>
 4101660:	f9408000 	ldr	x0, [x0,#256]
 4101664:	36400100 	tbz	w0, #8, 4101684 <cm_prepare_el3_exit+0x68>
 4101668:	f940aa60 	ldr	x0, [x19,#336]
 410166c:	52810601 	mov	w1, #0x830                 	// #2096
 4101670:	72a618a1 	movk	w1, #0x30c5, lsl #16
 4101674:	12067800 	and	w0, w0, #0xfdffffff
 4101678:	2a010000 	orr	w0, w0, w1
 410167c:	d51c1000 	msr	sctlr_el2, x0
 4101680:	14000017 	b	41016dc <cm_prepare_el3_exit+0xc0>
 4101684:	d5380401 	mrs	x1, id_aa64pfr0_el1
 4101688:	f2780c3f 	tst	x1, #0xf00
 410168c:	54000280 	b.eq	41016dc <cm_prepare_el3_exit+0xc0>
 4101690:	12160000 	and	w0, w0, #0x400
 4101694:	d2800001 	mov	x1, #0x0                   	// #0
 4101698:	6b1f001f 	cmp	w0, wzr
 410169c:	d2b00000 	mov	x0, #0x80000000            	// #2147483648
 41016a0:	9a9f1000 	csel	x0, x0, xzr, ne
 41016a4:	d51c1100 	msr	hcr_el2, x0
 41016a8:	d53c1140 	mrs	x0, cptr_el2
 41016ac:	529f7fe2 	mov	w2, #0xfbff                	// #64511
 41016b0:	72affde2 	movk	w2, #0x7fef, lsl #16
 41016b4:	0a000040 	and	w0, w2, w0
 41016b8:	d51c1140 	msr	cptr_el2, x0
 41016bc:	d2800060 	mov	x0, #0x3                   	// #3
 41016c0:	d51ce100 	msr	cnthctl_el2, x0
 41016c4:	d51ce061 	msr	cntvoff_el2, x1
 41016c8:	d5380000 	mrs	x0, midr_el1
 41016cc:	d51c0000 	msr	vpidr_el2, x0
 41016d0:	d53800a0 	mrs	x0, mpidr_el1
 41016d4:	d51c00a0 	msr	vmpidr_el2, x0
 41016d8:	d51c2101 	msr	vttbr_el2, x1
 41016dc:	91048260 	add	x0, x19, #0x120
 41016e0:	94000341 	bl	41023e4 <el1_sysregs_context_restore>
 41016e4:	d5384200 	mrs	x0, spsel
 41016e8:	b4000120 	cbz	x0, 410170c <cm_prepare_el3_exit+0xf0>
 41016ec:	d0000003 	adrp	x3, 4103000 <bl1_svc_uid+0x128>
 41016f0:	d0000001 	adrp	x1, 4103000 <bl1_svc_uid+0x128>
 41016f4:	d0000000 	adrp	x0, 4103000 <bl1_svc_uid+0x128>
 41016f8:	9105c463 	add	x3, x3, #0x171
 41016fc:	52800c02 	mov	w2, #0x60                  	// #96
 4101700:	91062021 	add	x1, x1, #0x188
 4101704:	9107c000 	add	x0, x0, #0x1f0
 4101708:	94000159 	bl	4101c6c <__assert>
 410170c:	d50041bf 	msr	spsel, #0x1
 4101710:	9100027f 	mov	sp, x19
 4101714:	d50040bf 	msr	spsel, #0x0
 4101718:	a94153f3 	ldp	x19, x20, [sp,#16]
 410171c:	a8c27bfd 	ldp	x29, x30, [sp],#32
 4101720:	d65f03c0 	ret

0000000004101724 <bl1_plat_get_next_image_id>:
 4101724:	52800020 	mov	w0, #0x1                   	// #1
 4101728:	d65f03c0 	ret

000000000410172c <bl1_plat_set_ep_info>:
 410172c:	d65f03c0 	ret

0000000004101730 <reserve_mem>:
 4101730:	a9bf7bfd 	stp	x29, x30, [sp,#-16]!
 4101734:	910003fd 	mov	x29, sp
 4101738:	b50000a0 	cbnz	x0, 410174c <reserve_mem+0x1c>
 410173c:	d0000003 	adrp	x3, 4103000 <bl1_svc_uid+0x128>
 4101740:	52800e62 	mov	w2, #0x73                  	// #115
 4101744:	9108bc63 	add	x3, x3, #0x22f
 4101748:	14000005 	b	410175c <reserve_mem+0x2c>
 410174c:	b5000121 	cbnz	x1, 4101770 <reserve_mem+0x40>
 4101750:	d0000003 	adrp	x3, 4103000 <bl1_svc_uid+0x128>
 4101754:	52800e82 	mov	w2, #0x74                  	// #116
 4101758:	91095063 	add	x3, x3, #0x254
 410175c:	d0000001 	adrp	x1, 4103000 <bl1_svc_uid+0x128>
 4101760:	d0000000 	adrp	x0, 4103000 <bl1_svc_uid+0x128>
 4101764:	91090421 	add	x1, x1, #0x241
 4101768:	910ba000 	add	x0, x0, #0x2e8
 410176c:	94000140 	bl	4101c6c <__assert>
 4101770:	f9400007 	ldr	x7, [x0]
 4101774:	eb0200ff 	cmp	x7, x2
 4101778:	540000c8 	b.hi	4101790 <reserve_mem+0x60>
 410177c:	f9400025 	ldr	x5, [x1]
 4101780:	8b030046 	add	x6, x2, x3
 4101784:	8b0500e4 	add	x4, x7, x5
 4101788:	eb0400df 	cmp	x6, x4
 410178c:	540000a9 	b.ls	41017a0 <reserve_mem+0x70>
 4101790:	d0000003 	adrp	x3, 4103000 <bl1_svc_uid+0x128>
 4101794:	52800ea2 	mov	w2, #0x75                  	// #117
 4101798:	910a0463 	add	x3, x3, #0x281
 410179c:	17fffff0 	b	410175c <reserve_mem+0x2c>
 41017a0:	eb06005f 	cmp	x2, x6
 41017a4:	54000129 	b.ls	41017c8 <reserve_mem+0x98>
 41017a8:	d0000003 	adrp	x3, 4103000 <bl1_svc_uid+0x128>
 41017ac:	d0000001 	adrp	x1, 4103000 <bl1_svc_uid+0x128>
 41017b0:	d0000000 	adrp	x0, 4103000 <bl1_svc_uid+0x128>
 41017b4:	91099863 	add	x3, x3, #0x266
 41017b8:	52800ac2 	mov	w2, #0x56                  	// #86
 41017bc:	91090421 	add	x1, x1, #0x241
 41017c0:	91088000 	add	x0, x0, #0x220
 41017c4:	17ffffea 	b	410176c <reserve_mem+0x3c>
 41017c8:	cb070042 	sub	x2, x2, x7
 41017cc:	cb060084 	sub	x4, x4, x6
 41017d0:	eb02009f 	cmp	x4, x2
 41017d4:	52800027 	mov	w7, #0x1                   	// #1
 41017d8:	54000063 	b.cc	41017e4 <reserve_mem+0xb4>
 41017dc:	aa0203e4 	mov	x4, x2
 41017e0:	52800007 	mov	w7, #0x0                   	// #0
 41017e4:	cb0300a5 	sub	x5, x5, x3
 41017e8:	cb0400a4 	sub	x4, x5, x4
 41017ec:	f9000024 	str	x4, [x1]
 41017f0:	35000047 	cbnz	w7, 41017f8 <reserve_mem+0xc8>
 41017f4:	f9000006 	str	x6, [x0]
 41017f8:	a8c17bfd 	ldp	x29, x30, [sp],#16
 41017fc:	d65f03c0 	ret

0000000004101800 <load_image>:
 4101800:	a9b97bfd 	stp	x29, x30, [sp,#-112]!
 4101804:	910003fd 	mov	x29, sp
 4101808:	a9025bf5 	stp	x21, x22, [sp,#32]
 410180c:	a90153f3 	stp	x19, x20, [sp,#16]
 4101810:	f9001bf7 	str	x23, [sp,#48]
 4101814:	aa0003f5 	mov	x21, x0
 4101818:	b50000a0 	cbnz	x0, 410182c <load_image+0x2c>
 410181c:	b0000003 	adrp	x3, 4102000 <mmap_add_region+0x80>
 4101820:	52801a82 	mov	w2, #0xd4                  	// #212
 4101824:	913bb063 	add	x3, x3, #0xeec
 4101828:	14000006 	b	4101840 <load_image+0x40>
 410182c:	aa0303f6 	mov	x22, x3
 4101830:	b5000123 	cbnz	x3, 4101854 <load_image+0x54>
 4101834:	d0000003 	adrp	x3, 4103000 <bl1_svc_uid+0x128>
 4101838:	52801aa2 	mov	w2, #0xd5                  	// #213
 410183c:	910ac463 	add	x3, x3, #0x2b1
 4101840:	d0000001 	adrp	x1, 4103000 <bl1_svc_uid+0x128>
 4101844:	d0000000 	adrp	x0, 4103000 <bl1_svc_uid+0x128>
 4101848:	91090421 	add	x1, x1, #0x241
 410184c:	910be000 	add	x0, x0, #0x2f8
 4101850:	94000107 	bl	4101c6c <__assert>
 4101854:	2a0103e0 	mov	w0, w1
 4101858:	39400461 	ldrb	w1, [x3,#1]
 410185c:	350000a1 	cbnz	w1, 4101870 <load_image+0x70>
 4101860:	d0000003 	adrp	x3, 4103000 <bl1_svc_uid+0x128>
 4101864:	52801ac2 	mov	w2, #0xd6                  	// #214
 4101868:	910b1063 	add	x3, x3, #0x2c4
 410186c:	17fffff5 	b	4101840 <load_image+0x40>
 4101870:	aa0203f4 	mov	x20, x2
 4101874:	910123a1 	add	x1, x29, #0x48
 4101878:	910163a2 	add	x2, x29, #0x58
 410187c:	aa0403f7 	mov	x23, x4
 4101880:	97fffde4 	bl	4101010 <plat_get_image_source>
 4101884:	350006a0 	cbnz	w0, 4101958 <load_image+0x158>
 4101888:	f94027a0 	ldr	x0, [x29,#72]
 410188c:	910143a2 	add	x2, x29, #0x50
 4101890:	f9402fa1 	ldr	x1, [x29,#88]
 4101894:	97fffc7d 	bl	4100a88 <io_open>
 4101898:	35000600 	cbnz	w0, 4101958 <load_image+0x158>
 410189c:	f9402ba0 	ldr	x0, [x29,#80]
 41018a0:	910183a1 	add	x1, x29, #0x60
 41018a4:	97fffcec 	bl	4100c54 <io_size>
 41018a8:	2a0003f3 	mov	w19, w0
 41018ac:	350002a0 	cbnz	w0, 4101900 <load_image+0x100>
 41018b0:	f94033a2 	ldr	x2, [x29,#96]
 41018b4:	b4000262 	cbz	x2, 4101900 <load_image+0x100>
 41018b8:	f9400aa1 	ldr	x1, [x21,#16]
 41018bc:	eb14003f 	cmp	x1, x20
 41018c0:	540000c8 	b.hi	41018d8 <load_image+0xd8>
 41018c4:	f9400ea0 	ldr	x0, [x21,#24]
 41018c8:	8b000020 	add	x0, x1, x0
 41018cc:	8b140041 	add	x1, x2, x20
 41018d0:	eb01001f 	cmp	x0, x1
 41018d4:	54000062 	b.cs	41018e0 <load_image+0xe0>
 41018d8:	12800173 	mov	w19, #0xfffffff4            	// #-12
 41018dc:	14000009 	b	4101900 <load_image+0x100>
 41018e0:	f9402ba0 	ldr	x0, [x29,#80]
 41018e4:	9101a3a3 	add	x3, x29, #0x68
 41018e8:	aa1403e1 	mov	x1, x20
 41018ec:	97fffcf8 	bl	4100ccc <io_read>
 41018f0:	35000300 	cbnz	w0, 4101950 <load_image+0x150>
 41018f4:	a94603a3 	ldp	x3, x0, [x29,#96]
 41018f8:	eb03001f 	cmp	x0, x3
 41018fc:	540000e2 	b.cs	4101918 <load_image+0x118>
 4101900:	f9402ba0 	ldr	x0, [x29,#80]
 4101904:	97fffd1a 	bl	4100d6c <io_close>
 4101908:	f94027a0 	ldr	x0, [x29,#72]
 410190c:	97fffc41 	bl	4100a10 <io_dev_close>
 4101910:	2a1303e0 	mov	w0, w19
 4101914:	14000011 	b	4101958 <load_image+0x158>
 4101918:	b40000b7 	cbz	x23, 410192c <load_image+0x12c>
 410191c:	aa1403e2 	mov	x2, x20
 4101920:	910062a1 	add	x1, x21, #0x18
 4101924:	910042a0 	add	x0, x21, #0x10
 4101928:	97ffff82 	bl	4101730 <reserve_mem>
 410192c:	f94033a1 	ldr	x1, [x29,#96]
 4101930:	f90006d4 	str	x20, [x22,#8]
 4101934:	b90012c1 	str	w1, [x22,#16]
 4101938:	b4000057 	cbz	x23, 4101940 <load_image+0x140>
 410193c:	f90006f4 	str	x20, [x23,#8]
 4101940:	aa1403e0 	mov	x0, x20
 4101944:	52800013 	mov	w19, #0x0                   	// #0
 4101948:	9400033a 	bl	4102630 <flush_dcache_range>
 410194c:	17ffffed 	b	4101900 <load_image+0x100>
 4101950:	2a0003f3 	mov	w19, w0
 4101954:	17ffffeb 	b	4101900 <load_image+0x100>
 4101958:	a94153f3 	ldp	x19, x20, [sp,#16]
 410195c:	a9425bf5 	ldp	x21, x22, [sp,#32]
 4101960:	f9401bf7 	ldr	x23, [sp,#48]
 4101964:	a8c77bfd 	ldp	x29, x30, [sp],#112
 4101968:	d65f03c0 	ret

000000000410196c <load_auth_image>:
 410196c:	17ffffa5 	b	4101800 <load_image>

0000000004101970 <print_entry_point_info>:
 4101970:	d65f03c0 	ret

0000000004101974 <unsigned_num_print>:
 4101974:	a9bc7bfd 	stp	x29, x30, [sp,#-64]!
 4101978:	d2800003 	mov	x3, #0x0                   	// #0
 410197c:	910003fd 	mov	x29, sp
 4101980:	f9000bf3 	str	x19, [sp,#16]
 4101984:	2a0103e2 	mov	w2, w1
 4101988:	11000473 	add	w19, w3, #0x1
 410198c:	9ac20804 	udiv	x4, x0, x2
 4101990:	9b028080 	msub	x0, x4, x2, x0
 4101994:	9100a3a2 	add	x2, x29, #0x28
 4101998:	7100241f 	cmp	w0, #0x9
 410199c:	5400006c 	b.gt	41019a8 <unsigned_num_print+0x34>
 41019a0:	1100c000 	add	w0, w0, #0x30
 41019a4:	14000002 	b	41019ac <unsigned_num_print+0x38>
 41019a8:	11015c00 	add	w0, w0, #0x57
 41019ac:	38236840 	strb	w0, [x2,x3]
 41019b0:	aa0403e0 	mov	x0, x4
 41019b4:	91000463 	add	x3, x3, #0x1
 41019b8:	b5fffe64 	cbnz	x4, 4101984 <unsigned_num_print+0x10>
 41019bc:	51000673 	sub	w19, w19, #0x1
 41019c0:	3100067f 	cmn	w19, #0x1
 41019c4:	540000c0 	b.eq	41019dc <unsigned_num_print+0x68>
 41019c8:	d13f03a0 	sub	x0, x29, #0xfc0
 41019cc:	8b33c000 	add	x0, x0, w19, sxtw
 41019d0:	397fa000 	ldrb	w0, [x0,#4072]
 41019d4:	940000db 	bl	4101d40 <putchar>
 41019d8:	17fffff9 	b	41019bc <unsigned_num_print+0x48>
 41019dc:	f9400bf3 	ldr	x19, [sp,#16]
 41019e0:	a8c47bfd 	ldp	x29, x30, [sp],#64
 41019e4:	d65f03c0 	ret

00000000041019e8 <tf_printf>:
 41019e8:	a9b87bfd 	stp	x29, x30, [sp,#-128]!
 41019ec:	910003fd 	mov	x29, sp
 41019f0:	a90153f3 	stp	x19, x20, [sp,#16]
 41019f4:	aa0003f3 	mov	x19, x0
 41019f8:	910203a0 	add	x0, x29, #0x80
 41019fc:	a90203a0 	stp	x0, x0, [x29,#32]
 4101a00:	910103a0 	add	x0, x29, #0x40
 4101a04:	b9003fbf 	str	wzr, [x29,#60]
 4101a08:	f9001ba0 	str	x0, [x29,#48]
 4101a0c:	128006e0 	mov	w0, #0xffffffc8            	// #-56
 4101a10:	a9048ba1 	stp	x1, x2, [x29,#72]
 4101a14:	a90593a3 	stp	x3, x4, [x29,#88]
 4101a18:	a9069ba5 	stp	x5, x6, [x29,#104]
 4101a1c:	f9003fa7 	str	x7, [x29,#120]
 4101a20:	b9003ba0 	str	w0, [x29,#56]
 4101a24:	39400260 	ldrb	w0, [x19]
 4101a28:	340011c0 	cbz	w0, 4101c60 <tf_printf+0x278>
 4101a2c:	7100941f 	cmp	w0, #0x25
 4101a30:	91000673 	add	x19, x19, #0x1
 4101a34:	54001121 	b.ne	4101c58 <tf_printf+0x270>
 4101a38:	52800004 	mov	w4, #0x0                   	// #0
 4101a3c:	39400260 	ldrb	w0, [x19]
 4101a40:	7101b01f 	cmp	w0, #0x6c
 4101a44:	54000c40 	b.eq	4101bcc <tf_printf+0x1e4>
 4101a48:	540000c8 	b.hi	4101a60 <tf_printf+0x78>
 4101a4c:	7101901f 	cmp	w0, #0x64
 4101a50:	54000160 	b.eq	4101a7c <tf_printf+0x94>
 4101a54:	7101a41f 	cmp	w0, #0x69
 4101a58:	54000120 	b.eq	4101a7c <tf_printf+0x94>
 4101a5c:	14000081 	b	4101c60 <tf_printf+0x278>
 4101a60:	7101d41f 	cmp	w0, #0x75
 4101a64:	54000ba0 	b.eq	4101bd8 <tf_printf+0x1f0>
 4101a68:	7101e01f 	cmp	w0, #0x78
 4101a6c:	54000740 	b.eq	4101b54 <tf_printf+0x16c>
 4101a70:	7101cc1f 	cmp	w0, #0x73
 4101a74:	54000f61 	b.ne	4101c60 <tf_printf+0x278>
 4101a78:	14000024 	b	4101b08 <tf_printf+0x120>
 4101a7c:	b9403ba2 	ldr	w2, [x29,#56]
 4101a80:	f94013a0 	ldr	x0, [x29,#32]
 4101a84:	340001c4 	cbz	w4, 4101abc <tf_printf+0xd4>
 4101a88:	36f800a2 	tbz	w2, #31, 4101a9c <tf_printf+0xb4>
 4101a8c:	11002041 	add	w1, w2, #0x8
 4101a90:	b9003ba1 	str	w1, [x29,#56]
 4101a94:	6b1f003f 	cmp	w1, wzr
 4101a98:	540000ad 	b.le	4101aac <tf_printf+0xc4>
 4101a9c:	91003c01 	add	x1, x0, #0xf
 4101aa0:	927df021 	and	x1, x1, #0xfffffffffffffff8
 4101aa4:	f90013a1 	str	x1, [x29,#32]
 4101aa8:	14000003 	b	4101ab4 <tf_printf+0xcc>
 4101aac:	f94017a1 	ldr	x1, [x29,#40]
 4101ab0:	8b22c020 	add	x0, x1, w2, sxtw
 4101ab4:	f9400014 	ldr	x20, [x0]
 4101ab8:	1400000d 	b	4101aec <tf_printf+0x104>
 4101abc:	36f800a2 	tbz	w2, #31, 4101ad0 <tf_printf+0xe8>
 4101ac0:	11002041 	add	w1, w2, #0x8
 4101ac4:	b9003ba1 	str	w1, [x29,#56]
 4101ac8:	6b1f003f 	cmp	w1, wzr
 4101acc:	540000ad 	b.le	4101ae0 <tf_printf+0xf8>
 4101ad0:	91002c01 	add	x1, x0, #0xb
 4101ad4:	927df021 	and	x1, x1, #0xfffffffffffffff8
 4101ad8:	f90013a1 	str	x1, [x29,#32]
 4101adc:	14000003 	b	4101ae8 <tf_printf+0x100>
 4101ae0:	f94017a1 	ldr	x1, [x29,#40]
 4101ae4:	8b22c020 	add	x0, x1, w2, sxtw
 4101ae8:	b9800014 	ldrsw	x20, [x0]
 4101aec:	b6f80094 	tbz	x20, #63, 4101afc <tf_printf+0x114>
 4101af0:	528005a0 	mov	w0, #0x2d                  	// #45
 4101af4:	cb1403f4 	neg	x20, x20
 4101af8:	94000092 	bl	4101d40 <putchar>
 4101afc:	52800141 	mov	w1, #0xa                   	// #10
 4101b00:	aa1403e0 	mov	x0, x20
 4101b04:	14000052 	b	4101c4c <tf_printf+0x264>
 4101b08:	b9403ba1 	ldr	w1, [x29,#56]
 4101b0c:	f94013a0 	ldr	x0, [x29,#32]
 4101b10:	36f800a1 	tbz	w1, #31, 4101b24 <tf_printf+0x13c>
 4101b14:	11002022 	add	w2, w1, #0x8
 4101b18:	b9003ba2 	str	w2, [x29,#56]
 4101b1c:	6b1f005f 	cmp	w2, wzr
 4101b20:	540000ad 	b.le	4101b34 <tf_printf+0x14c>
 4101b24:	91003c01 	add	x1, x0, #0xf
 4101b28:	927df021 	and	x1, x1, #0xfffffffffffffff8
 4101b2c:	f90013a1 	str	x1, [x29,#32]
 4101b30:	14000003 	b	4101b3c <tf_printf+0x154>
 4101b34:	f94017a0 	ldr	x0, [x29,#40]
 4101b38:	8b21c000 	add	x0, x0, w1, sxtw
 4101b3c:	f9400014 	ldr	x20, [x0]
 4101b40:	39400280 	ldrb	w0, [x20]
 4101b44:	34000860 	cbz	w0, 4101c50 <tf_printf+0x268>
 4101b48:	91000694 	add	x20, x20, #0x1
 4101b4c:	9400007d 	bl	4101d40 <putchar>
 4101b50:	17fffffc 	b	4101b40 <tf_printf+0x158>
 4101b54:	b9403ba3 	ldr	w3, [x29,#56]
 4101b58:	f94013a1 	ldr	x1, [x29,#32]
 4101b5c:	340001c4 	cbz	w4, 4101b94 <tf_printf+0x1ac>
 4101b60:	36f800a3 	tbz	w3, #31, 4101b74 <tf_printf+0x18c>
 4101b64:	11002060 	add	w0, w3, #0x8
 4101b68:	b9003ba0 	str	w0, [x29,#56]
 4101b6c:	6b1f001f 	cmp	w0, wzr
 4101b70:	540000ad 	b.le	4101b84 <tf_printf+0x19c>
 4101b74:	91003c20 	add	x0, x1, #0xf
 4101b78:	927df000 	and	x0, x0, #0xfffffffffffffff8
 4101b7c:	f90013a0 	str	x0, [x29,#32]
 4101b80:	14000003 	b	4101b8c <tf_printf+0x1a4>
 4101b84:	f94017a0 	ldr	x0, [x29,#40]
 4101b88:	8b23c001 	add	x1, x0, w3, sxtw
 4101b8c:	f9400020 	ldr	x0, [x1]
 4101b90:	1400000d 	b	4101bc4 <tf_printf+0x1dc>
 4101b94:	36f800a3 	tbz	w3, #31, 4101ba8 <tf_printf+0x1c0>
 4101b98:	11002060 	add	w0, w3, #0x8
 4101b9c:	b9003ba0 	str	w0, [x29,#56]
 4101ba0:	6b1f001f 	cmp	w0, wzr
 4101ba4:	540000ad 	b.le	4101bb8 <tf_printf+0x1d0>
 4101ba8:	91002c20 	add	x0, x1, #0xb
 4101bac:	927df000 	and	x0, x0, #0xfffffffffffffff8
 4101bb0:	f90013a0 	str	x0, [x29,#32]
 4101bb4:	14000003 	b	4101bc0 <tf_printf+0x1d8>
 4101bb8:	f94017a2 	ldr	x2, [x29,#40]
 4101bbc:	8b23c041 	add	x1, x2, w3, sxtw
 4101bc0:	b9400020 	ldr	w0, [x1]
 4101bc4:	52800201 	mov	w1, #0x10                  	// #16
 4101bc8:	14000021 	b	4101c4c <tf_printf+0x264>
 4101bcc:	91000673 	add	x19, x19, #0x1
 4101bd0:	52800024 	mov	w4, #0x1                   	// #1
 4101bd4:	17ffff9a 	b	4101a3c <tf_printf+0x54>
 4101bd8:	b9403ba0 	ldr	w0, [x29,#56]
 4101bdc:	f94013a1 	ldr	x1, [x29,#32]
 4101be0:	340001c4 	cbz	w4, 4101c18 <tf_printf+0x230>
 4101be4:	36f800a0 	tbz	w0, #31, 4101bf8 <tf_printf+0x210>
 4101be8:	11002002 	add	w2, w0, #0x8
 4101bec:	b9003ba2 	str	w2, [x29,#56]
 4101bf0:	6b1f005f 	cmp	w2, wzr
 4101bf4:	540000ad 	b.le	4101c08 <tf_printf+0x220>
 4101bf8:	91003c20 	add	x0, x1, #0xf
 4101bfc:	927df000 	and	x0, x0, #0xfffffffffffffff8
 4101c00:	f90013a0 	str	x0, [x29,#32]
 4101c04:	14000003 	b	4101c10 <tf_printf+0x228>
 4101c08:	f94017a2 	ldr	x2, [x29,#40]
 4101c0c:	8b20c041 	add	x1, x2, w0, sxtw
 4101c10:	f9400020 	ldr	x0, [x1]
 4101c14:	1400000d 	b	4101c48 <tf_printf+0x260>
 4101c18:	36f800a0 	tbz	w0, #31, 4101c2c <tf_printf+0x244>
 4101c1c:	11002002 	add	w2, w0, #0x8
 4101c20:	b9003ba2 	str	w2, [x29,#56]
 4101c24:	6b1f005f 	cmp	w2, wzr
 4101c28:	540000ad 	b.le	4101c3c <tf_printf+0x254>
 4101c2c:	91002c20 	add	x0, x1, #0xb
 4101c30:	927df000 	and	x0, x0, #0xfffffffffffffff8
 4101c34:	f90013a0 	str	x0, [x29,#32]
 4101c38:	14000003 	b	4101c44 <tf_printf+0x25c>
 4101c3c:	f94017a2 	ldr	x2, [x29,#40]
 4101c40:	8b20c041 	add	x1, x2, w0, sxtw
 4101c44:	b9400020 	ldr	w0, [x1]
 4101c48:	52800141 	mov	w1, #0xa                   	// #10
 4101c4c:	97ffff4a 	bl	4101974 <unsigned_num_print>
 4101c50:	91000673 	add	x19, x19, #0x1
 4101c54:	17ffff74 	b	4101a24 <tf_printf+0x3c>
 4101c58:	9400003a 	bl	4101d40 <putchar>
 4101c5c:	17ffff72 	b	4101a24 <tf_printf+0x3c>
 4101c60:	a94153f3 	ldp	x19, x20, [sp,#16]
 4101c64:	a8c87bfd 	ldp	x29, x30, [sp],#128
 4101c68:	d65f03c0 	ret

0000000004101c6c <__assert>:
 4101c6c:	a9bf7bfd 	stp	x29, x30, [sp,#-16]!
 4101c70:	aa0003e1 	mov	x1, x0
 4101c74:	d0000000 	adrp	x0, 4103000 <bl1_svc_uid+0x128>
 4101c78:	910003fd 	mov	x29, sp
 4101c7c:	910c4c00 	add	x0, x0, #0x313
 4101c80:	97ffff5a 	bl	41019e8 <tf_printf>
 4101c84:	14000000 	b	4101c84 <__assert+0x18>

0000000004101c88 <memset>:
 4101c88:	d2800003 	mov	x3, #0x0                   	// #0
 4101c8c:	eb03005f 	cmp	x2, x3
 4101c90:	54000080 	b.eq	4101ca0 <memset+0x18>
 4101c94:	38236801 	strb	w1, [x0,x3]
 4101c98:	91000463 	add	x3, x3, #0x1
 4101c9c:	17fffffc 	b	4101c8c <memset+0x4>
 4101ca0:	d65f03c0 	ret

0000000004101ca4 <memcmp>:
 4101ca4:	d2800004 	mov	x4, #0x0                   	// #0
 4101ca8:	eb04005f 	cmp	x2, x4
 4101cac:	54000120 	b.eq	4101cd0 <memcmp+0x2c>
 4101cb0:	38646803 	ldrb	w3, [x0,x4]
 4101cb4:	91000484 	add	x4, x4, #0x1
 4101cb8:	8b040025 	add	x5, x1, x4
 4101cbc:	385ff0a5 	ldurb	w5, [x5,#-1]
 4101cc0:	6b05007f 	cmp	w3, w5
 4101cc4:	54ffff20 	b.eq	4101ca8 <memcmp+0x4>
 4101cc8:	4b050060 	sub	w0, w3, w5
 4101ccc:	d65f03c0 	ret
 4101cd0:	52800000 	mov	w0, #0x0                   	// #0
 4101cd4:	d65f03c0 	ret

0000000004101cd8 <memcpy>:
 4101cd8:	d2800003 	mov	x3, #0x0                   	// #0
 4101cdc:	eb03005f 	cmp	x2, x3
 4101ce0:	540000a0 	b.eq	4101cf4 <memcpy+0x1c>
 4101ce4:	38636824 	ldrb	w4, [x1,x3]
 4101ce8:	38236804 	strb	w4, [x0,x3]
 4101cec:	91000463 	add	x3, x3, #0x1
 4101cf0:	17fffffb 	b	4101cdc <memcpy+0x4>
 4101cf4:	d65f03c0 	ret

0000000004101cf8 <memmove>:
 4101cf8:	cb010006 	sub	x6, x0, x1
 4101cfc:	aa0003e4 	mov	x4, x0
 4101d00:	eb0200df 	cmp	x6, x2
 4101d04:	54000043 	b.cc	4101d0c <memmove+0x14>
 4101d08:	17fffff4 	b	4101cd8 <memcpy>
 4101d0c:	8b020003 	add	x3, x0, x2
 4101d10:	8b020025 	add	x5, x1, x2
 4101d14:	aa2303e1 	mvn	x1, x3
 4101d18:	8b010001 	add	x1, x0, x1
 4101d1c:	d2800000 	mov	x0, #0x0                   	// #0
 4101d20:	d1000400 	sub	x0, x0, #0x1
 4101d24:	eb00003f 	cmp	x1, x0
 4101d28:	54000080 	b.eq	4101d38 <memmove+0x40>
 4101d2c:	386068a2 	ldrb	w2, [x5,x0]
 4101d30:	38206862 	strb	w2, [x3,x0]
 4101d34:	17fffffb 	b	4101d20 <memmove+0x28>
 4101d38:	aa0403e0 	mov	x0, x4
 4101d3c:	d65f03c0 	ret

0000000004101d40 <putchar>:
 4101d40:	a9be7bfd 	stp	x29, x30, [sp,#-32]!
 4101d44:	910003fd 	mov	x29, sp
 4101d48:	f9000bf3 	str	x19, [sp,#16]
 4101d4c:	2a0003f3 	mov	w19, w0
 4101d50:	53001c00 	uxtb	w0, w0
 4101d54:	94000277 	bl	4102730 <console_putc>
 4101d58:	6b1f001f 	cmp	w0, wzr
 4101d5c:	5a9fa260 	csinv	w0, w19, wzr, ge
 4101d60:	f9400bf3 	ldr	x19, [sp,#16]
 4101d64:	a8c27bfd 	ldp	x29, x30, [sp],#32
 4101d68:	d65f03c0 	ret

0000000004101d6c <bl1_plat_get_image_desc>:
 4101d6c:	b0fff9c2 	adrp	x2, 403a000 <__BL1_RAM_START__>
 4101d70:	52800021 	mov	w1, #0x1                   	// #1
 4101d74:	912ca040 	add	x0, x2, #0xb28
 4101d78:	b90b2841 	str	w1, [x2,#2856]
 4101d7c:	39002401 	strb	w1, [x0,#9]
 4101d80:	52800041 	mov	w1, #0x2                   	// #2
 4101d84:	b9000c01 	str	w1, [x0,#12]
 4101d88:	d28e0001 	mov	x1, #0x7000                	// #28672
 4101d8c:	f2a08021 	movk	x1, #0x401, lsl #16
 4101d90:	b900241f 	str	wzr, [x0,#36]
 4101d94:	f9000801 	str	x1, [x0,#16]
 4101d98:	f9001401 	str	x1, [x0,#40]
 4101d9c:	d65f03c0 	ret

0000000004101da0 <init_xlation_table>:
 4101da0:	a9ba7bfd 	stp	x29, x30, [sp,#-96]!
 4101da4:	71000c7f 	cmp	w3, #0x3
 4101da8:	910003fd 	mov	x29, sp
 4101dac:	a90363f7 	stp	x23, x24, [sp,#48]
 4101db0:	aa0203f7 	mov	x23, x2
 4101db4:	12800102 	mov	w2, #0xfffffff7            	// #-9
 4101db8:	a90153f3 	stp	x19, x20, [sp,#16]
 4101dbc:	1b027c62 	mul	w2, w3, w2
 4101dc0:	a9046bf9 	stp	x25, x26, [sp,#64]
 4101dc4:	a9025bf5 	stp	x21, x22, [sp,#32]
 4101dc8:	f9002bfb 	str	x27, [sp,#80]
 4101dcc:	11009c42 	add	w2, w2, #0x27
 4101dd0:	52800039 	mov	w25, #0x1                   	// #1
 4101dd4:	52803ff4 	mov	w20, #0x1ff                 	// #511
 4101dd8:	1ac22339 	lsl	w25, w25, w2
 4101ddc:	1ac22282 	lsl	w2, w20, w2
 4101de0:	540000a9 	b.ls	4101df4 <init_xlation_table+0x54>
 4101de4:	d0000003 	adrp	x3, 4103000 <bl1_svc_uid+0x128>
 4101de8:	528018e2 	mov	w2, #0xc7                  	// #199
 4101dec:	91103463 	add	x3, x3, #0x40d
 4101df0:	1400004c 	b	4101f20 <init_xlation_table+0x180>
 4101df4:	d280007a 	mov	x26, #0x3                   	// #3
 4101df8:	b0fff9d6 	adrp	x22, 403a000 <__BL1_RAM_START__>
 4101dfc:	d0fff9db 	adrp	x27, 403b000 <xlat_tables>
 4101e00:	2a0303f8 	mov	w24, w3
 4101e04:	93407c54 	sxtw	x20, w2
 4101e08:	9a9f075a 	csinc	x26, x26, xzr, eq
 4101e0c:	912c82d6 	add	x22, x22, #0xb20
 4101e10:	9100037b 	add	x27, x27, #0x0
 4101e14:	a9408813 	ldp	x19, x2, [x0,#8]
 4101e18:	8b020262 	add	x2, x19, x2
 4101e1c:	eb02003f 	cmp	x1, x2
 4101e20:	54000063 	b.cc	4101e2c <init_xlation_table+0x8c>
 4101e24:	91008000 	add	x0, x0, #0x20
 4101e28:	1400004b 	b	4101f54 <init_xlation_table+0x1b4>
 4101e2c:	8b394035 	add	x21, x1, w25, uxtw
 4101e30:	eb15027f 	cmp	x19, x21
 4101e34:	54000882 	b.cs	4101f44 <init_xlation_table+0x1a4>
 4101e38:	eb13003f 	cmp	x1, x19
 4101e3c:	fa552040 	ccmp	x2, x21, #0x0, cs
 4101e40:	540005c3 	b.cc	4101ef8 <init_xlation_table+0x158>
 4101e44:	b9401803 	ldr	w3, [x0,#24]
 4101e48:	aa0003e5 	mov	x5, x0
 4101e4c:	910080a5 	add	x5, x5, #0x20
 4101e50:	f94008a4 	ldr	x4, [x5,#16]
 4101e54:	b4000204 	cbz	x4, 4101e94 <init_xlation_table+0xf4>
 4101e58:	f94004a6 	ldr	x6, [x5,#8]
 4101e5c:	eb0602bf 	cmp	x21, x6
 4101e60:	540001a9 	b.ls	4101e94 <init_xlation_table+0xf4>
 4101e64:	8b060084 	add	x4, x4, x6
 4101e68:	eb04003f 	cmp	x1, x4
 4101e6c:	54ffff02 	b.cs	4101e4c <init_xlation_table+0xac>
 4101e70:	b94018a2 	ldr	w2, [x5,#24]
 4101e74:	0a020062 	and	w2, w3, w2
 4101e78:	6b02007f 	cmp	w3, w2
 4101e7c:	54fffe80 	b.eq	4101e4c <init_xlation_table+0xac>
 4101e80:	eb0402bf 	cmp	x21, x4
 4101e84:	2a0203e3 	mov	w3, w2
 4101e88:	fa469020 	ccmp	x1, x6, #0x0, ls
 4101e8c:	54fffe02 	b.cs	4101e4c <init_xlation_table+0xac>
 4101e90:	1400001a 	b	4101ef8 <init_xlation_table+0x158>
 4101e94:	37f80323 	tbnz	w3, #31, 4101ef8 <init_xlation_table+0x158>
 4101e98:	f9400002 	ldr	x2, [x0]
 4101e9c:	121e0064 	and	w4, w3, #0x4
 4101ea0:	6b1f009f 	cmp	w4, wzr
 4101ea4:	d2801004 	mov	x4, #0x80                  	// #128
 4101ea8:	cb130053 	sub	x19, x2, x19
 4101eac:	8b010273 	add	x19, x19, x1
 4101eb0:	aa1a0262 	orr	x2, x19, x26
 4101eb4:	d2800413 	mov	x19, #0x20                  	// #32
 4101eb8:	9a9f1273 	csel	x19, x19, xzr, ne
 4101ebc:	721f0065 	ands	w5, w3, #0x2
 4101ec0:	9a8413e4 	csel	x4, xzr, x4, ne
 4101ec4:	aa040273 	orr	x19, x19, x4
 4101ec8:	aa020273 	orr	x19, x19, x2
 4101ecc:	360000c3 	tbz	w3, #0, 4101ee4 <init_xlation_table+0x144>
 4101ed0:	35000065 	cbnz	w5, 4101edc <init_xlation_table+0x13c>
 4101ed4:	b2780a73 	orr	x19, x19, #0x700
 4101ed8:	14000006 	b	4101ef0 <init_xlation_table+0x150>
 4101edc:	d280e002 	mov	x2, #0x700                 	// #1792
 4101ee0:	14000002 	b	4101ee8 <init_xlation_table+0x148>
 4101ee4:	d280c082 	mov	x2, #0x604                 	// #1540
 4101ee8:	f2e00802 	movk	x2, #0x40, lsl #48
 4101eec:	aa020273 	orr	x19, x19, x2
 4101ef0:	b100067f 	cmn	x19, #0x1
 4101ef4:	540002a1 	b.ne	4101f48 <init_xlation_table+0x1a8>
 4101ef8:	b94002c2 	ldr	w2, [x22]
 4101efc:	11000443 	add	w3, w2, #0x1
 4101f00:	b90002c3 	str	w3, [x22]
 4101f04:	7100107f 	cmp	w3, #0x4
 4101f08:	d3747c42 	ubfiz	x2, x2, #12, #32
 4101f0c:	8b020362 	add	x2, x27, x2
 4101f10:	54000129 	b.ls	4101f34 <init_xlation_table+0x194>
 4101f14:	d0000003 	adrp	x3, 4103000 <bl1_svc_uid+0x128>
 4101f18:	52801d02 	mov	w2, #0xe8                  	// #232
 4101f1c:	9110c863 	add	x3, x3, #0x432
 4101f20:	d0000001 	adrp	x1, 4103000 <bl1_svc_uid+0x128>
 4101f24:	d0000000 	adrp	x0, 4103000 <bl1_svc_uid+0x128>
 4101f28:	91106021 	add	x1, x1, #0x418
 4101f2c:	910ec000 	add	x0, x0, #0x3b0
 4101f30:	97ffff4f 	bl	4101c6c <__assert>
 4101f34:	11000703 	add	w3, w24, #0x1
 4101f38:	b2400453 	orr	x19, x2, #0x3
 4101f3c:	97ffff99 	bl	4101da0 <init_xlation_table>
 4101f40:	14000002 	b	4101f48 <init_xlation_table+0x1a8>
 4101f44:	d2800013 	mov	x19, #0x0                   	// #0
 4101f48:	f90002f3 	str	x19, [x23]
 4101f4c:	aa1503e1 	mov	x1, x21
 4101f50:	910022f7 	add	x23, x23, #0x8
 4101f54:	f9400802 	ldr	x2, [x0,#16]
 4101f58:	b4000062 	cbz	x2, 4101f64 <init_xlation_table+0x1c4>
 4101f5c:	ea14003f 	tst	x1, x20
 4101f60:	54fff5a1 	b.ne	4101e14 <init_xlation_table+0x74>
 4101f64:	a94153f3 	ldp	x19, x20, [sp,#16]
 4101f68:	a9425bf5 	ldp	x21, x22, [sp,#32]
 4101f6c:	a94363f7 	ldp	x23, x24, [sp,#48]
 4101f70:	a9446bf9 	ldp	x25, x26, [sp,#64]
 4101f74:	f9402bfb 	ldr	x27, [sp,#80]
 4101f78:	a8c67bfd 	ldp	x29, x30, [sp],#96
 4101f7c:	d65f03c0 	ret

0000000004101f80 <mmap_add_region>:
 4101f80:	a9bc7bfd 	stp	x29, x30, [sp,#-64]!
 4101f84:	910003fd 	mov	x29, sp
 4101f88:	a90363f7 	stp	x23, x24, [sp,#48]
 4101f8c:	a90153f3 	stp	x19, x20, [sp,#16]
 4101f90:	aa0003f7 	mov	x23, x0
 4101f94:	92402c00 	and	x0, x0, #0xfff
 4101f98:	a9025bf5 	stp	x21, x22, [sp,#32]
 4101f9c:	b40000a0 	cbz	x0, 4101fb0 <mmap_add_region+0x30>
 4101fa0:	d0000003 	adrp	x3, 4103000 <bl1_svc_uid+0x128>
 4101fa4:	52800c22 	mov	w2, #0x61                  	// #97
 4101fa8:	91113c63 	add	x3, x3, #0x44f
 4101fac:	14000007 	b	4101fc8 <mmap_add_region+0x48>
 4101fb0:	92402c20 	and	x0, x1, #0xfff
 4101fb4:	aa0103f6 	mov	x22, x1
 4101fb8:	b4000120 	cbz	x0, 4101fdc <mmap_add_region+0x5c>
 4101fbc:	d0000003 	adrp	x3, 4103000 <bl1_svc_uid+0x128>
 4101fc0:	52800c42 	mov	w2, #0x62                  	// #98
 4101fc4:	9111a063 	add	x3, x3, #0x468
 4101fc8:	d0000001 	adrp	x1, 4103000 <bl1_svc_uid+0x128>
 4101fcc:	d0000000 	adrp	x0, 4103000 <bl1_svc_uid+0x128>
 4101fd0:	91106021 	add	x1, x1, #0x418
 4101fd4:	91154000 	add	x0, x0, #0x550
 4101fd8:	97ffff25 	bl	4101c6c <__assert>
 4101fdc:	92402c40 	and	x0, x2, #0xfff
 4101fe0:	aa0203f4 	mov	x20, x2
 4101fe4:	b40000a0 	cbz	x0, 4101ff8 <mmap_add_region+0x78>
 4101fe8:	d0000003 	adrp	x3, 4103000 <bl1_svc_uid+0x128>
 4101fec:	52800c62 	mov	w2, #0x63                  	// #99
 4101ff0:	91120463 	add	x3, x3, #0x481
 4101ff4:	17fffff5 	b	4101fc8 <mmap_add_region+0x48>
 4101ff8:	b4000502 	cbz	x2, 4102098 <mmap_add_region+0x118>
 4101ffc:	b0fff9d5 	adrp	x21, 403a000 <__BL1_RAM_START__>
 4102000:	2a0303f8 	mov	w24, w3
 4102004:	9126e2b3 	add	x19, x21, #0x9b8
 4102008:	f9400660 	ldr	x0, [x19,#8]
 410200c:	eb0002df 	cmp	x22, x0
 4102010:	91008260 	add	x0, x19, #0x20
 4102014:	54000188 	b.hi	4102044 <mmap_add_region+0xc4>
 4102018:	9126e2b5 	add	x21, x21, #0x9b8
 410201c:	aa1303e1 	mov	x1, x19
 4102020:	910402a2 	add	x2, x21, #0x100
 4102024:	cb130042 	sub	x2, x2, x19
 4102028:	97ffff34 	bl	4101cf8 <memmove>
 410202c:	f9408aa0 	ldr	x0, [x21,#272]
 4102030:	b4000120 	cbz	x0, 4102054 <mmap_add_region+0xd4>
 4102034:	b0000003 	adrp	x3, 4103000 <bl1_svc_uid+0x128>
 4102038:	52800e02 	mov	w2, #0x70                  	// #112
 410203c:	91125c63 	add	x3, x3, #0x497
 4102040:	17ffffe2 	b	4101fc8 <mmap_add_region+0x48>
 4102044:	f9400a61 	ldr	x1, [x19,#16]
 4102048:	b4fffe81 	cbz	x1, 4102018 <mmap_add_region+0x98>
 410204c:	aa0003f3 	mov	x19, x0
 4102050:	17ffffee 	b	4102008 <mmap_add_region+0x88>
 4102054:	90fff9c1 	adrp	x1, 403a000 <__BL1_RAM_START__>
 4102058:	d1000680 	sub	x0, x20, #0x1
 410205c:	8b170000 	add	x0, x0, x23
 4102060:	f9000a74 	str	x20, [x19,#16]
 4102064:	a9005a77 	stp	x23, x22, [x19]
 4102068:	f9457022 	ldr	x2, [x1,#2784]
 410206c:	b9001a78 	str	w24, [x19,#24]
 4102070:	eb02001f 	cmp	x0, x2
 4102074:	54000049 	b.ls	410207c <mmap_add_region+0xfc>
 4102078:	f9057020 	str	x0, [x1,#2784]
 410207c:	90fff9c0 	adrp	x0, 403a000 <__BL1_RAM_START__>
 4102080:	d10006d6 	sub	x22, x22, #0x1
 4102084:	8b1402d4 	add	x20, x22, x20
 4102088:	f9456c01 	ldr	x1, [x0,#2776]
 410208c:	eb01029f 	cmp	x20, x1
 4102090:	54000049 	b.ls	4102098 <mmap_add_region+0x118>
 4102094:	f9056c14 	str	x20, [x0,#2776]
 4102098:	a94153f3 	ldp	x19, x20, [sp,#16]
 410209c:	a9425bf5 	ldp	x21, x22, [sp,#32]
 41020a0:	a94363f7 	ldp	x23, x24, [sp,#48]
 41020a4:	a8c47bfd 	ldp	x29, x30, [sp],#64
 41020a8:	d65f03c0 	ret

00000000041020ac <mmap_add>:
 41020ac:	a9be7bfd 	stp	x29, x30, [sp,#-32]!
 41020b0:	910003fd 	mov	x29, sp
 41020b4:	f9000bf3 	str	x19, [sp,#16]
 41020b8:	aa0003f3 	mov	x19, x0
 41020bc:	f9400a62 	ldr	x2, [x19,#16]
 41020c0:	b40000c2 	cbz	x2, 41020d8 <mmap_add+0x2c>
 41020c4:	b9401a63 	ldr	w3, [x19,#24]
 41020c8:	f9400661 	ldr	x1, [x19,#8]
 41020cc:	f8420660 	ldr	x0, [x19],#32
 41020d0:	97ffffac 	bl	4101f80 <mmap_add_region>
 41020d4:	17fffffa 	b	41020bc <mmap_add+0x10>
 41020d8:	f9400bf3 	ldr	x19, [sp,#16]
 41020dc:	a8c27bfd 	ldp	x29, x30, [sp],#32
 41020e0:	d65f03c0 	ret

00000000041020e4 <init_xlat_tables>:
 41020e4:	a9bf7bfd 	stp	x29, x30, [sp,#-16]!
 41020e8:	90fff9c2 	adrp	x2, 403a000 <__BL1_RAM_START__>
 41020ec:	90fff9c0 	adrp	x0, 403a000 <__BL1_RAM_START__>
 41020f0:	910003fd 	mov	x29, sp
 41020f4:	d2800001 	mov	x1, #0x0                   	// #0
 41020f8:	52800023 	mov	w3, #0x1                   	// #1
 41020fc:	912c0042 	add	x2, x2, #0xb00
 4102100:	9126e000 	add	x0, x0, #0x9b8
 4102104:	97ffff27 	bl	4101da0 <init_xlation_table>
 4102108:	90fff9c0 	adrp	x0, 403a000 <__BL1_RAM_START__>
 410210c:	f9457001 	ldr	x1, [x0,#2784]
 4102110:	f2503c3f 	tst	x1, #0xffff000000000000
 4102114:	54000120 	b.eq	4102138 <init_xlat_tables+0x54>
 4102118:	b0000003 	adrp	x3, 4103000 <bl1_svc_uid+0x128>
 410211c:	b0000001 	adrp	x1, 4103000 <bl1_svc_uid+0x128>
 4102120:	b0000000 	adrp	x0, 4103000 <bl1_svc_uid+0x128>
 4102124:	9112a863 	add	x3, x3, #0x4aa
 4102128:	52801f82 	mov	w2, #0xfc                  	// #252
 410212c:	91106021 	add	x1, x1, #0x418
 4102130:	910fc000 	add	x0, x0, #0x3f0
 4102134:	1400001d 	b	41021a8 <init_xlat_tables+0xc4>
 4102138:	f2540c3f 	tst	x1, #0xf00000000000
 410213c:	d28000a0 	mov	x0, #0x5                   	// #5
 4102140:	54000181 	b.ne	4102170 <init_xlat_tables+0x8c>
 4102144:	f256043f 	tst	x1, #0xc0000000000
 4102148:	d2800080 	mov	x0, #0x4                   	// #4
 410214c:	54000121 	b.ne	4102170 <init_xlat_tables+0x8c>
 4102150:	f258043f 	tst	x1, #0x30000000000
 4102154:	d2800060 	mov	x0, #0x3                   	// #3
 4102158:	540000c1 	b.ne	4102170 <init_xlat_tables+0x8c>
 410215c:	f25c0c3f 	tst	x1, #0xf000000000
 4102160:	d2800040 	mov	x0, #0x2                   	// #2
 4102164:	54000061 	b.ne	4102170 <init_xlat_tables+0x8c>
 4102168:	f2600c3f 	tst	x1, #0xf00000000
 410216c:	1a9f07e0 	cset	w0, ne
 4102170:	90fff9c1 	adrp	x1, 403a000 <__BL1_RAM_START__>
 4102174:	f904d820 	str	x0, [x1,#2480]
 4102178:	90fff9c0 	adrp	x0, 403a000 <__BL1_RAM_START__>
 410217c:	f9456c01 	ldr	x1, [x0,#2776]
 4102180:	b2407fe0 	mov	x0, #0xffffffff            	// #4294967295
 4102184:	eb00003f 	cmp	x1, x0
 4102188:	54000129 	b.ls	41021ac <init_xlat_tables+0xc8>
 410218c:	b0000003 	adrp	x3, 4103000 <bl1_svc_uid+0x128>
 4102190:	b0000001 	adrp	x1, 4103000 <bl1_svc_uid+0x128>
 4102194:	b0000000 	adrp	x0, 4103000 <bl1_svc_uid+0x128>
 4102198:	91133c63 	add	x3, x3, #0x4cf
 410219c:	52802342 	mov	w2, #0x11a                 	// #282
 41021a0:	91106021 	add	x1, x1, #0x418
 41021a4:	910f6000 	add	x0, x0, #0x3d8
 41021a8:	97fffeb1 	bl	4101c6c <__assert>
 41021ac:	a8c17bfd 	ldp	x29, x30, [sp],#16
 41021b0:	d65f03c0 	ret

00000000041021b4 <enable_mmu_el3>:
 41021b4:	a9bf7bfd 	stp	x29, x30, [sp,#-16]!
 41021b8:	910003fd 	mov	x29, sp
 41021bc:	d5384241 	mrs	x1, currentel
 41021c0:	d3420c21 	ubfx	x1, x1, #2, #2
 41021c4:	f1000c3f 	cmp	x1, #0x3
 41021c8:	54000080 	b.eq	41021d8 <enable_mmu_el3+0x24>
 41021cc:	b0000003 	adrp	x3, 4103000 <bl1_svc_uid+0x128>
 41021d0:	91146863 	add	x3, x3, #0x51a
 41021d4:	14000005 	b	41021e8 <enable_mmu_el3+0x34>
 41021d8:	d53e1001 	mrs	x1, sctlr_el3
 41021dc:	36000121 	tbz	w1, #0, 4102200 <enable_mmu_el3+0x4c>
 41021e0:	b0000003 	adrp	x3, 4103000 <bl1_svc_uid+0x128>
 41021e4:	91149863 	add	x3, x3, #0x526
 41021e8:	b0000001 	adrp	x1, 4103000 <bl1_svc_uid+0x128>
 41021ec:	b0000000 	adrp	x0, 4103000 <bl1_svc_uid+0x128>
 41021f0:	52802c02 	mov	w2, #0x160                 	// #352
 41021f4:	91106021 	add	x1, x1, #0x418
 41021f8:	910f2000 	add	x0, x0, #0x3c8
 41021fc:	97fffe9c 	bl	4101c6c <__assert>
 4102200:	d2809fe1 	mov	x1, #0x4ff                 	// #1279
 4102204:	d51ea201 	msr	mair_el3, x1
 4102208:	d50e871f 	tlbi	alle3
 410220c:	90fff9c1 	adrp	x1, 403a000 <__BL1_RAM_START__>
 4102210:	d286a402 	mov	x2, #0x3520                	// #13600
 4102214:	f2b01002 	movk	x2, #0x8080, lsl #16
 4102218:	f944d821 	ldr	x1, [x1,#2480]
 410221c:	aa014041 	orr	x1, x2, x1, lsl #16
 4102220:	d51e2041 	msr	tcr_el3, x1
 4102224:	90fff9c1 	adrp	x1, 403a000 <__BL1_RAM_START__>
 4102228:	912c0021 	add	x1, x1, #0xb00
 410222c:	d51e2001 	msr	ttbr0_el3, x1
 4102230:	d5033f9f 	dsb	sy
 4102234:	d5033fdf 	isb
 4102238:	d53e1001 	mrs	x1, sctlr_el3
 410223c:	360000a0 	tbz	w0, #0, 4102250 <enable_mmu_el3+0x9c>
 4102240:	121d7820 	and	w0, w1, #0xfffffffb
 4102244:	52800021 	mov	w1, #0x1                   	// #1
 4102248:	72a00101 	movk	w1, #0x8, lsl #16
 410224c:	14000003 	b	4102258 <enable_mmu_el3+0xa4>
 4102250:	528000a0 	mov	w0, #0x5                   	// #5
 4102254:	72a00100 	movk	w0, #0x8, lsl #16
 4102258:	2a010000 	orr	w0, w0, w1
 410225c:	d51e1000 	msr	sctlr_el3, x0
 4102260:	d5033fdf 	isb
 4102264:	a8c17bfd 	ldp	x29, x30, [sp],#16
 4102268:	d65f03c0 	ret

000000000410226c <arm_configure_mmu_el3>:
 410226c:	a9be7bfd 	stp	x29, x30, [sp,#-32]!
 4102270:	910003fd 	mov	x29, sp
 4102274:	a90153f3 	stp	x19, x20, [sp,#16]
 4102278:	aa0203f3 	mov	x19, x2
 410227c:	aa0303f4 	mov	x20, x3
 4102280:	aa0103e2 	mov	x2, x1
 4102284:	52800063 	mov	w3, #0x3                   	// #3
 4102288:	aa0003e1 	mov	x1, x0
 410228c:	97ffff3d 	bl	4101f80 <mmap_add_region>
 4102290:	cb130282 	sub	x2, x20, x19
 4102294:	aa1303e1 	mov	x1, x19
 4102298:	52800023 	mov	w3, #0x1                   	// #1
 410229c:	aa1303e0 	mov	x0, x19
 41022a0:	97ffff38 	bl	4101f80 <mmap_add_region>
 41022a4:	b0000000 	adrp	x0, 4103000 <bl1_svc_uid+0x128>
 41022a8:	910d4000 	add	x0, x0, #0x350
 41022ac:	97ffff80 	bl	41020ac <mmap_add>
 41022b0:	97ffff8d 	bl	41020e4 <init_xlat_tables>
 41022b4:	a94153f3 	ldp	x19, x20, [sp,#16]
 41022b8:	a8c27bfd 	ldp	x29, x30, [sp],#32
 41022bc:	52800000 	mov	w0, #0x0                   	// #0
 41022c0:	17ffffbd 	b	41021b4 <enable_mmu_el3>

00000000041022c4 <plat_secondary_cold_boot_setup>:
 41022c4:	d2800000 	mov	x0, #0x0                   	// #0
 41022c8:	d65f03c0 	ret

00000000041022cc <plat_get_my_entrypoint>:
 41022cc:	d2800000 	mov	x0, #0x0                   	// #0
 41022d0:	d65f03c0 	ret

00000000041022d4 <plat_is_my_cpu_primary>:
 41022d4:	d53800a0 	mrs	x0, mpidr_el1
 41022d8:	92403c00 	and	x0, x0, #0xffff
 41022dc:	f100001f 	cmp	x0, #0x0
 41022e0:	1a9f17e0 	cset	w0, eq
 41022e4:	d65f03c0 	ret

00000000041022e8 <cortex_a53_reset_func>:
 41022e8:	aa1e03f3 	mov	x19, x30
 41022ec:	d5380000 	mrs	x0, midr_el1
 41022f0:	d3505c0f 	ubfx	x15, x0, #16, #8
 41022f4:	b3400c0f 	bfxil	x15, x0, #0, #4
 41022f8:	d539f220 	mrs	x0, s3_1_c15_c2_1
 41022fc:	f27a001f 	tst	x0, #0x40
 4102300:	54000061 	b.ne	410230c <skip_smp_setup>
 4102304:	b27a0000 	orr	x0, x0, #0x40
 4102308:	d519f220 	msr	s3_1_c15_c2_1, x0

000000000410230c <skip_smp_setup>:
 410230c:	d5033fdf 	isb
 4102310:	d65f0260 	ret	x19
 4102314:	00000000 	.inst	0x00000000 ; undefined

0000000004102318 <plat_set_my_stack>:
 4102318:	58000080 	ldr	x0, 4102328 <plat_set_my_stack+0x10>
 410231c:	9100001f 	mov	sp, x0
 4102320:	d65f03c0 	ret
 4102324:	00000000 	.word	0x00000000
 4102328:	0403a480 	.word	0x0403a480
 410232c:	00000000 	.word	0x00000000

0000000004102330 <smc_handler64>:
 4102330:	d280009e 	mov	x30, #0x4                   	// #4
 4102334:	eb0003df 	cmp	x30, x0
 4102338:	540003a1 	b.ne	41023ac <smc_handler>
 410233c:	d53e111e 	mrs	x30, scr_el3
 4102340:	f24003df 	tst	x30, #0x1
 4102344:	540002c1 	b.ne	410239c <unexpected_sync_exception>
 4102348:	f94087fe 	ldr	x30, [sp,#264]
 410234c:	d50040bf 	msr	spsel, #0x0
 4102350:	910003df 	mov	sp, x30
 4102354:	aa0103f4 	mov	x20, x1
 4102358:	aa1403e0 	mov	x0, x20
 410235c:	97fffbec 	bl	410130c <bl1_print_bl31_ep_info>
 4102360:	a9408680 	ldp	x0, x1, [x20,#8]
 4102364:	d51e4020 	msr	elr_el3, x0
 4102368:	d51e4001 	msr	spsr_el3, x1
 410236c:	d3420c20 	ubfx	x0, x1, #2, #2
 4102370:	f1000c1f 	cmp	x0, #0x3
 4102374:	54000141 	b.ne	410239c <unexpected_sync_exception>
 4102378:	940000e4 	bl	4102708 <disable_mmu_icache_el3>
 410237c:	d50e871f 	tlbi	alle3
 4102380:	aa1403e0 	mov	x0, x20
 4102384:	97fffac1 	bl	4100e88 <bl1_plat_prepare_exit>
 4102388:	a9449e86 	ldp	x6, x7, [x20,#72]
 410238c:	a9439684 	ldp	x4, x5, [x20,#56]
 4102390:	a9428e82 	ldp	x2, x3, [x20,#40]
 4102394:	a9418680 	ldp	x0, x1, [x20,#24]
 4102398:	d69f03e0 	eret

000000000410239c <unexpected_sync_exception>:
 410239c:	d2800100 	mov	x0, #0x8                   	// #8
 41023a0:	940000dc 	bl	4102710 <plat_report_exception>
 41023a4:	d503207f 	wfi
 41023a8:	17fffffd 	b	410239c <unexpected_sync_exception>

00000000041023ac <smc_handler>:
 41023ac:	9400003b 	bl	4102498 <save_gp_registers>
 41023b0:	aa1f03e5 	mov	x5, xzr
 41023b4:	910003e6 	mov	x6, sp
 41023b8:	f94084cc 	ldr	x12, [x6,#264]
 41023bc:	d50040bf 	msr	spsel, #0x0
 41023c0:	9100019f 	mov	sp, x12
 41023c4:	d53e4010 	mrs	x16, spsr_el3
 41023c8:	d53e4031 	mrs	x17, elr_el3
 41023cc:	d53e1112 	mrs	x18, scr_el3
 41023d0:	a91144d0 	stp	x16, x17, [x6,#272]
 41023d4:	f90080d2 	str	x18, [x6,#256]
 41023d8:	b3400247 	bfxil	x7, x18, #0, #1
 41023dc:	97fffbd7 	bl	4101338 <bl1_smc_handler>
 41023e0:	14000053 	b	410252c <el3_exit>

00000000041023e4 <el1_sysregs_context_restore>:
 41023e4:	a9402809 	ldp	x9, x10, [x0]
 41023e8:	d5184009 	msr	spsr_el1, x9
 41023ec:	d518402a 	msr	elr_el1, x10
 41023f0:	a941300b 	ldp	x11, x12, [x0,#16]
 41023f4:	d51c432b 	msr	spsr_abt, x11
 41023f8:	d51c434c 	msr	spsr_und, x12
 41023fc:	a942380d 	ldp	x13, x14, [x0,#32]
 4102400:	d51c430d 	msr	spsr_irq, x13
 4102404:	d51c436e 	msr	spsr_fiq, x14
 4102408:	a943400f 	ldp	x15, x16, [x0,#48]
 410240c:	d518100f 	msr	sctlr_el1, x15
 4102410:	d5181030 	msr	actlr_el1, x16
 4102414:	a9442411 	ldp	x17, x9, [x0,#64]
 4102418:	d5181051 	msr	cpacr_el1, x17
 410241c:	d51a0009 	msr	csselr_el1, x9
 4102420:	a9452c0a 	ldp	x10, x11, [x0,#80]
 4102424:	d51c410a 	msr	sp_el1, x10
 4102428:	d518520b 	msr	esr_el1, x11
 410242c:	a946340c 	ldp	x12, x13, [x0,#96]
 4102430:	d518200c 	msr	ttbr0_el1, x12
 4102434:	d518202d 	msr	ttbr1_el1, x13
 4102438:	a9473c0e 	ldp	x14, x15, [x0,#112]
 410243c:	d518a20e 	msr	mair_el1, x14
 4102440:	d518a30f 	msr	amair_el1, x15
 4102444:	a9484410 	ldp	x16, x17, [x0,#128]
 4102448:	d5182050 	msr	tcr_el1, x16
 410244c:	d518d091 	msr	tpidr_el1, x17
 4102450:	a9492809 	ldp	x9, x10, [x0,#144]
 4102454:	d51bd049 	msr	tpidr_el0, x9
 4102458:	d51bd06a 	msr	tpidrro_el0, x10
 410245c:	a94a300b 	ldp	x11, x12, [x0,#160]
 4102460:	d51c300b 	msr	dacr32_el2, x11
 4102464:	d51c502c 	msr	ifsr32_el2, x12
 4102468:	a94b380d 	ldp	x13, x14, [x0,#176]
 410246c:	d518740d 	msr	par_el1, x13
 4102470:	d518600e 	msr	far_el1, x14
 4102474:	a94c400f 	ldp	x15, x16, [x0,#192]
 4102478:	d518510f 	msr	afsr0_el1, x15
 410247c:	d5185130 	msr	afsr1_el1, x16
 4102480:	a94d2411 	ldp	x17, x9, [x0,#208]
 4102484:	d518d031 	msr	contextidr_el1, x17
 4102488:	d518c009 	msr	vbar_el1, x9
 410248c:	f940700f 	ldr	x15, [x0,#224]
 4102490:	d51c530f 	msr	fpexc32_el2, x15
 4102494:	d65f03c0 	ret

0000000004102498 <save_gp_registers>:
 4102498:	a90007e0 	stp	x0, x1, [sp]
 410249c:	a9010fe2 	stp	x2, x3, [sp,#16]
 41024a0:	a90217e4 	stp	x4, x5, [sp,#32]
 41024a4:	a9031fe6 	stp	x6, x7, [sp,#48]
 41024a8:	a90427e8 	stp	x8, x9, [sp,#64]
 41024ac:	a9052fea 	stp	x10, x11, [sp,#80]
 41024b0:	a90637ec 	stp	x12, x13, [sp,#96]
 41024b4:	a9073fee 	stp	x14, x15, [sp,#112]
 41024b8:	a90847f0 	stp	x16, x17, [sp,#128]
 41024bc:	a9094ff2 	stp	x18, x19, [sp,#144]
 41024c0:	a90a57f4 	stp	x20, x21, [sp,#160]
 41024c4:	a90b5ff6 	stp	x22, x23, [sp,#176]
 41024c8:	a90c67f8 	stp	x24, x25, [sp,#192]
 41024cc:	a90d6ffa 	stp	x26, x27, [sp,#208]
 41024d0:	a90e77fc 	stp	x28, x29, [sp,#224]
 41024d4:	d5384112 	mrs	x18, sp_el0
 41024d8:	f9007ff2 	str	x18, [sp,#248]
 41024dc:	d65f03c0 	ret

00000000041024e0 <restore_gp_registers_eret>:
 41024e0:	a94007e0 	ldp	x0, x1, [sp]
 41024e4:	a9410fe2 	ldp	x2, x3, [sp,#16]
 41024e8:	14000001 	b	41024ec <restore_gp_registers_callee_eret>

00000000041024ec <restore_gp_registers_callee_eret>:
 41024ec:	a94217e4 	ldp	x4, x5, [sp,#32]
 41024f0:	a9431fe6 	ldp	x6, x7, [sp,#48]
 41024f4:	a94427e8 	ldp	x8, x9, [sp,#64]
 41024f8:	a9452fea 	ldp	x10, x11, [sp,#80]
 41024fc:	a94637ec 	ldp	x12, x13, [sp,#96]
 4102500:	a9473fee 	ldp	x14, x15, [sp,#112]
 4102504:	a9494ff2 	ldp	x18, x19, [sp,#144]
 4102508:	a94a57f4 	ldp	x20, x21, [sp,#160]
 410250c:	a94b5ff6 	ldp	x22, x23, [sp,#176]
 4102510:	a94c67f8 	ldp	x24, x25, [sp,#192]
 4102514:	a94d6ffa 	ldp	x26, x27, [sp,#208]
 4102518:	a94e77fc 	ldp	x28, x29, [sp,#224]
 410251c:	a94f47fe 	ldp	x30, x17, [sp,#240]
 4102520:	d5184111 	msr	sp_el0, x17
 4102524:	a94847f0 	ldp	x16, x17, [sp,#128]
 4102528:	d69f03e0 	eret

000000000410252c <el3_exit>:
 410252c:	910003f1 	mov	x17, sp
 4102530:	d50041bf 	msr	spsel, #0x1
 4102534:	f90087f1 	str	x17, [sp,#264]
 4102538:	f94083f2 	ldr	x18, [sp,#256]
 410253c:	a95147f0 	ldp	x16, x17, [sp,#272]
 4102540:	d51e1112 	msr	scr_el3, x18
 4102544:	d51e4010 	msr	spsr_el3, x16
 4102548:	d51e4031 	msr	elr_el3, x17
 410254c:	17ffffe5 	b	41024e0 <restore_gp_registers_eret>

0000000004102550 <reset_handler>:
 4102550:	aa1e03f3 	mov	x19, x30
 4102554:	94000070 	bl	4102714 <plat_reset_handler>
 4102558:	9400000b 	bl	4102584 <get_cpu_ops_ptr>
 410255c:	f100001f 	cmp	x0, #0x0
 4102560:	54000081 	b.ne	4102570 <reset_handler+0x20>
 4102564:	10007fe0 	adr	x0, 4103560 <__func__.1966+0x10>
 4102568:	d2800741 	mov	x1, #0x3a                  	// #58
 410256c:	14000015 	b	41025c0 <asm_assert>
 4102570:	f9400402 	ldr	x2, [x0,#8]
 4102574:	aa1303fe 	mov	x30, x19
 4102578:	b4000042 	cbz	x2, 4102580 <reset_handler+0x30>
 410257c:	d61f0040 	br	x2
 4102580:	d65f03c0 	ret

0000000004102584 <get_cpu_ops_ptr>:
 4102584:	10008164 	adr	x4, 41035b0 <__CPU_OPS_START__>
 4102588:	100081c5 	adr	x5, 41035c0 <__CPU_OPS_END__>
 410258c:	d2800000 	mov	x0, #0x0                   	// #0
 4102590:	d5380002 	mrs	x2, midr_el1
 4102594:	d29ffe03 	mov	x3, #0xfff0                	// #65520
 4102598:	f2bfe003 	movk	x3, #0xff00, lsl #16
 410259c:	0a030042 	and	w2, w2, w3
 41025a0:	eb05009f 	cmp	x4, x5
 41025a4:	540000c0 	b.eq	41025bc <error_exit>
 41025a8:	f8410481 	ldr	x1, [x4],#16
 41025ac:	0a030021 	and	w1, w1, w3
 41025b0:	6b02003f 	cmp	w1, w2
 41025b4:	54ffff61 	b.ne	41025a0 <get_cpu_ops_ptr+0x1c>
 41025b8:	d1004080 	sub	x0, x4, #0x10

00000000041025bc <error_exit>:
 41025bc:	d65f03c0 	ret

00000000041025c0 <asm_assert>:
 41025c0:	aa0003e5 	mov	x5, x0
 41025c4:	aa0103e6 	mov	x6, x1
 41025c8:	94000087 	bl	41027e4 <plat_crash_console_init>
 41025cc:	b4000240 	cbz	x0, 4102614 <_assert_loop>
 41025d0:	70007d64 	adr	x4, 410357f <assert_msg1>
 41025d4:	94000011 	bl	4102618 <asm_print_str>
 41025d8:	aa0503e4 	mov	x4, x5
 41025dc:	9400000f 	bl	4102618 <asm_print_str>
 41025e0:	30007d64 	adr	x4, 410358d <assert_msg2>
 41025e4:	9400000d 	bl	4102618 <asm_print_str>
 41025e8:	f270bcdf 	tst	x6, #0xffffffffffff0000
 41025ec:	54000141 	b.ne	4102614 <_assert_loop>
 41025f0:	aa0603e4 	mov	x4, x6
 41025f4:	d2800146 	mov	x6, #0xa                   	// #10
 41025f8:	d284e205 	mov	x5, #0x2710                	// #10000

00000000041025fc <dec_print_loop>:
 41025fc:	9ac50880 	udiv	x0, x4, x5
 4102600:	9b059004 	msub	x4, x0, x5, x4
 4102604:	9100c000 	add	x0, x0, #0x30
 4102608:	9400007e 	bl	4102800 <plat_crash_console_putc>
 410260c:	9ac608a5 	udiv	x5, x5, x6
 4102610:	b5ffff65 	cbnz	x5, 41025fc <dec_print_loop>

0000000004102614 <_assert_loop>:
 4102614:	14000000 	b	4102614 <_assert_loop>

0000000004102618 <asm_print_str>:
 4102618:	aa1e03e3 	mov	x3, x30
 410261c:	38401480 	ldrb	w0, [x4],#1
 4102620:	b4000060 	cbz	x0, 410262c <asm_print_str+0x14>
 4102624:	94000077 	bl	4102800 <plat_crash_console_putc>
 4102628:	17fffffd 	b	410261c <asm_print_str+0x4>
 410262c:	d65f0060 	ret	x3

0000000004102630 <flush_dcache_range>:
 4102630:	d53b0023 	mrs	x3, ctr_el0
 4102634:	d3504c63 	ubfx	x3, x3, #16, #4
 4102638:	d2800082 	mov	x2, #0x4                   	// #4
 410263c:	9ac32042 	lsl	x2, x2, x3
 4102640:	8b010001 	add	x1, x0, x1
 4102644:	d1000443 	sub	x3, x2, #0x1
 4102648:	8a230000 	bic	x0, x0, x3

000000000410264c <loop_civac>:
 410264c:	d50b7e20 	dc	civac, x0
 4102650:	8b020000 	add	x0, x0, x2
 4102654:	eb01001f 	cmp	x0, x1
 4102658:	54ffffa3 	b.cc	410264c <loop_civac>
 410265c:	d5033f9f 	dsb	sy
 4102660:	d65f03c0 	ret

0000000004102664 <zeromem16>:
 4102664:	f2400c1f 	tst	x0, #0xf
 4102668:	54000080 	b.eq	4102678 <zeromem16+0x14>
 410266c:	10007940 	adr	x0, 4103594 <assert_msg2+0x7>
 4102670:	d2800b01 	mov	x1, #0x58                  	// #88
 4102674:	17ffffd3 	b	41025c0 <asm_assert>
 4102678:	8b010002 	add	x2, x0, x1

000000000410267c <z_loop16>:
 410267c:	cb000043 	sub	x3, x2, x0
 4102680:	f100407f 	cmp	x3, #0x10
 4102684:	5400006b 	b.lt	4102690 <z_loop1>
 4102688:	a8817c1f 	stp	xzr, xzr, [x0],#16
 410268c:	17fffffc 	b	410267c <z_loop16>

0000000004102690 <z_loop1>:
 4102690:	eb02001f 	cmp	x0, x2
 4102694:	54000060 	b.eq	41026a0 <z_end>
 4102698:	3800141f 	strb	wzr, [x0],#1
 410269c:	17fffffd 	b	4102690 <z_loop1>

00000000041026a0 <z_end>:
 41026a0:	d65f03c0 	ret

00000000041026a4 <memcpy16>:
 41026a4:	aa010003 	orr	x3, x0, x1
 41026a8:	f2400c7f 	tst	x3, #0xf
 41026ac:	54000080 	b.eq	41026bc <m_loop16>
 41026b0:	10007720 	adr	x0, 4103594 <assert_msg2+0x7>
 41026b4:	d2800f21 	mov	x1, #0x79                  	// #121
 41026b8:	17ffffc2 	b	41025c0 <asm_assert>

00000000041026bc <m_loop16>:
 41026bc:	f100405f 	cmp	x2, #0x10
 41026c0:	540000ab 	b.lt	41026d4 <m_loop1>
 41026c4:	a8c11023 	ldp	x3, x4, [x1],#16
 41026c8:	a8811003 	stp	x3, x4, [x0],#16
 41026cc:	d1004042 	sub	x2, x2, #0x10
 41026d0:	17fffffb 	b	41026bc <m_loop16>

00000000041026d4 <m_loop1>:
 41026d4:	b40000a2 	cbz	x2, 41026e8 <m_end>
 41026d8:	38401423 	ldrb	w3, [x1],#1
 41026dc:	38001403 	strb	w3, [x0],#1
 41026e0:	f1000442 	subs	x2, x2, #0x1
 41026e4:	54ffff81 	b.ne	41026d4 <m_loop1>

00000000041026e8 <m_end>:
 41026e8:	d65f03c0 	ret

00000000041026ec <disable_mmu_el3>:
 41026ec:	d28000a1 	mov	x1, #0x5                   	// #5

00000000041026f0 <do_disable_mmu>:
 41026f0:	d53e1000 	mrs	x0, sctlr_el3
 41026f4:	8a210000 	bic	x0, x0, x1
 41026f8:	d51e1000 	msr	sctlr_el3, x0
 41026fc:	d5033fdf 	isb
 4102700:	d5033f9f 	dsb	sy
 4102704:	d65f03c0 	ret

0000000004102708 <disable_mmu_icache_el3>:
 4102708:	d28200a1 	mov	x1, #0x1005                	// #4101
 410270c:	17fffff9 	b	41026f0 <do_disable_mmu>

0000000004102710 <plat_report_exception>:
 4102710:	d65f03c0 	ret

0000000004102714 <plat_reset_handler>:
 4102714:	d65f03c0 	ret

0000000004102718 <plat_error_handler>:
 4102718:	14000000 	b	4102718 <plat_error_handler>

000000000410271c <console_init>:
 410271c:	b4000080 	cbz	x0, 410272c <init_fail>
 4102720:	90fff9c3 	adrp	x3, 403a000 <__BL1_RAM_START__>
 4102724:	f9000060 	str	x0, [x3]
 4102728:	14000005 	b	410273c <console_core_init>

000000000410272c <init_fail>:
 410272c:	d65f03c0 	ret

0000000004102730 <console_putc>:
 4102730:	90fff9c2 	adrp	x2, 403a000 <__BL1_RAM_START__>
 4102734:	f9400041 	ldr	x1, [x2]
 4102738:	1400001a 	b	41027a0 <console_core_putc>

000000000410273c <console_core_init>:
 410273c:	b40002e0 	cbz	x0, 4102798 <init_fail>
 4102740:	340002c1 	cbz	w1, 4102798 <init_fail>
 4102744:	340002a2 	cbz	w2, 4102798 <init_fail>
 4102748:	531c6c42 	lsl	w2, w2, #4
 410274c:	1ac20822 	udiv	w2, w1, w2
 4102750:	12002442 	and	w2, w2, #0x3ff
 4102754:	b9401003 	ldr	w3, [x0,#16]
 4102758:	12165463 	and	w3, w3, #0xfffffc00
 410275c:	2a020063 	orr	w3, w3, w2
 4102760:	b9001003 	str	w3, [x0,#16]
 4102764:	52800003 	mov	w3, #0x0                   	// #0
 4102768:	b9001403 	str	w3, [x0,#20]
 410276c:	52880003 	mov	w3, #0x4000                	// #16384
 4102770:	32110063 	orr	w3, w3, #0x8000
 4102774:	b9000803 	str	w3, [x0,#8]
 4102778:	5280fa02 	mov	w2, #0x7d0                 	// #2000
 410277c:	51000442 	sub	w2, w2, #0x1
 4102780:	7100005f 	cmp	w2, #0x0
 4102784:	54ffffc1 	b.ne	410277c <console_core_init+0x40>
 4102788:	52800003 	mov	w3, #0x0                   	// #0
 410278c:	b9000803 	str	w3, [x0,#8]
 4102790:	52800020 	mov	w0, #0x1                   	// #1
 4102794:	d65f03c0 	ret

0000000004102798 <init_fail>:
 4102798:	52800000 	mov	w0, #0x0                   	// #0
 410279c:	d65f03c0 	ret

00000000041027a0 <console_core_putc>:
 41027a0:	b40001e1 	cbz	x1, 41027dc <putc_error>
 41027a4:	7100281f 	cmp	w0, #0xa
 41027a8:	540000e1 	b.ne	41027c4 <console_core_putc+0x24>
 41027ac:	b9400c22 	ldr	w2, [x1,#12]
 41027b0:	12150042 	and	w2, w2, #0x800
 41027b4:	7120005f 	cmp	w2, #0x800
 41027b8:	54ffffa0 	b.eq	41027ac <console_core_putc+0xc>
 41027bc:	528001a2 	mov	w2, #0xd                   	// #13
 41027c0:	b9000422 	str	w2, [x1,#4]
 41027c4:	b9400c22 	ldr	w2, [x1,#12]
 41027c8:	12150042 	and	w2, w2, #0x800
 41027cc:	7120005f 	cmp	w2, #0x800
 41027d0:	54ffffa0 	b.eq	41027c4 <console_core_putc+0x24>
 41027d4:	b9000420 	str	w0, [x1,#4]
 41027d8:	d65f03c0 	ret

00000000041027dc <putc_error>:
 41027dc:	12800000 	mov	w0, #0xffffffff            	// #-1
 41027e0:	d65f03c0 	ret

00000000041027e4 <plat_crash_console_init>:
 41027e4:	d2840000 	mov	x0, #0x2000                	// #8192
 41027e8:	f2ba0020 	movk	x0, #0xd001, lsl #16
 41027ec:	d2980001 	mov	x1, #0xc000                	// #49152
 41027f0:	f2a03121 	movk	x1, #0x189, lsl #16
 41027f4:	d2984002 	mov	x2, #0xc200                	// #49664
 41027f8:	f2a00022 	movk	x2, #0x1, lsl #16
 41027fc:	17ffffd0 	b	410273c <console_core_init>

0000000004102800 <plat_crash_console_putc>:
 4102800:	d2840001 	mov	x1, #0x2000                	// #8192
 4102804:	f2ba0021 	movk	x1, #0xd001, lsl #16
 4102808:	17ffffe6 	b	41027a0 <console_core_putc>

000000000410280c <platform_mem_init>:
 410280c:	d65f03c0 	ret

0000000004102810 <version_string>:
 4102810:	322e3176 62656428 3a296775 65766564     v1.2(debug):deve
 4102820:	36312d6c 2e37302e 00000030 00000000     l-16.07.0.......

0000000004102830 <build_message>:
 4102830:	6c697542 203a2074 313a3931 32353a34     Built : 19:14:52
 4102840:	7541202c 31332067 31303220 00000036     , Aug 31 2016...

0000000004102850 <fip_dev_info>:
 4102850:	04102988 00000000 00000000 00000000     .)..............

0000000004102860 <__func__.1781>:
 4102860:	5f706966 656c6966 65706f5f 0000006e     fip_file_open...

0000000004102870 <fip_dev_connector>:
 4102870:	041002e4 00000000                       ........

0000000004102878 <__func__.1790>:
 4102878:	5f706966 656c6966 6e656c5f 00000000     fip_file_len....

0000000004102888 <uuid_null>:
	...
 4102898:	69746e65 21207974 554e203d 64004c4c     entity != NULL.d
 41028a8:	65766972 692f7372 6f692f6f 7069665f     rivers/io/io_fip
 41028b8:	6200632e 65666675 3d212072 69752820     .c.buffer != (ui
 41028c8:	7470746e 29745f72 4c4c554e 6e656c00     ntptr_t)NULL.len
 41028d8:	5f687467 64616572 203d2120 4c4c554e     gth_read != NULL
 41028e8:	746e6500 2d797469 666e693e 3d21206f     .entity->info !=
 41028f8:	69752820 7470746e 29745f72 4c4c554e      (uintptr_t)NULL
 4102908:	76656400 666e695f 3d21206f 4c554e20     .dev_info != NUL
 4102918:	656c004c 6874676e 203d2120 4c4c554e     L.length != NULL
 4102928:	69757500 70735f64 21206365 554e203d     .uuid_spec != NU
 4102938:	64004c4c 635f7665 21206e6f 554e203d     LL.dev_con != NU
 4102948:	00004c4c 00000000                       LL......

0000000004102950 <__func__.1802>:
 4102950:	5f706966 656c6966 6165725f 00000064     fip_file_read...

0000000004102960 <__func__.1757>:
 4102960:	5f706966 5f766564 6e65706f 00000000     fip_dev_open....

0000000004102970 <__func__.1812>:
 4102970:	69676572 72657473 5f6f695f 5f766564     register_io_dev_
 4102980:	00706966 00000000                       fip.....

0000000004102988 <fip_dev_funcs>:
 4102988:	041000c8 00000000 0410037c 00000000     ........|.......
	...
 41029a0:	04100324 00000000 041001c4 00000000     $...............
	...
 41029b8:	04100184 00000000 041000e8 00000000     ................
 41029c8:	041000d0 00000000                       ........

00000000041029d0 <memmap_dev_info>:
 41029d0:	04102a78 00000000 00000000 00000000     x*..............

00000000041029e0 <__func__.1445>:
 41029e0:	6d6d656d 625f7061 6b636f6c 65706f5f     memmap_block_ope
 41029f0:	0000006e 00000000                       n.......

00000000041029f8 <__func__.1452>:
 41029f8:	6d6d656d 625f7061 6b636f6c 6565735f     memmap_block_see
 4102a08:	0000006b 00000000                       k.......

0000000004102a10 <__func__.1460>:
 4102a10:	6d6d656d 625f7061 6b636f6c 6165725f     memmap_block_rea
 4102a20:	00000064 00000000                       d.......

0000000004102a28 <memmap_dev_connector>:
 4102a28:	0410050c 00000000 76697264 2f737265     ........drivers/
 4102a38:	692f6f69 656d5f6f 70616d6d 6200632e     io/io_memmap.c.b
 4102a48:	6b636f6c 6570735f 3d212063 4c554e20     lock_spec != NUL
 4102a58:	656c004c 6874676e 6972775f 6e657474     L.length_written
 4102a68:	203d2120 4c4c554e 00000000 00000000      != NULL........

0000000004102a78 <memmap_dev_funcs>:
 4102a78:	041004fc 00000000 04100598 00000000     ................
 4102a88:	0410054c 00000000 00000000 00000000     L...............
 4102a98:	041006f8 00000000 04100660 00000000     ........`.......
 4102aa8:	04100610 00000000 00000000 00000000     ................
 4102ab8:	04100504 00000000                       ........

0000000004102ac0 <__func__.1472>:
 4102ac0:	6d6d656d 625f7061 6b636f6c 6f6c635f     memmap_block_clo
 4102ad0:	00006573 00000000                       se......

0000000004102ad8 <__func__.1468>:
 4102ad8:	6d6d656d 625f7061 6b636f6c 6972775f     memmap_block_wri
 4102ae8:	00006574 00000000                       te......

0000000004102af0 <__func__.1477>:
 4102af0:	69676572 72657473 5f6f695f 5f766564     register_io_dev_
 4102b00:	6d6d656d 00007061                       memmap..

0000000004102b08 <__func__.1434>:
 4102b08:	6d6d656d 645f7061 6f5f7665 006e6570     memmap_dev_open.

0000000004102b18 <__func__.1449>:
 4102b18:	735f6f69 006b6565                       io_seek.

0000000004102b20 <__func__.1401>:
 4102b20:	6f6c6c61 65746163 746e655f 00797469     allocate_entity.

0000000004102b30 <__func__.1413>:
 4102b30:	725f6f69 73696765 5f726574 69766564     io_register_devi
 4102b40:	00006563 00000000                       ce......

0000000004102b48 <__func__.1432>:
 4102b48:	645f6f69 635f7665 65736f6c 69726400     io_dev_close.dri
 4102b58:	73726576 2f6f692f 735f6f69 61726f74     vers/io/io_stora
 4102b68:	632e6567 6e616800 20656c64 4e203d21     ge.c.handle != N
 4102b78:	004c4c55 765f7369 64696c61 7665645f     ULL.is_valid_dev
 4102b88:	6e6f635f 7463656e 6428726f 635f7665     _connector(dev_c
 4102b98:	00296e6f 5f766564 646e6168 2120656c     on).dev_handle !
 4102ba8:	7528203d 70746e69 745f7274 4c554e29     = (uintptr_t)NUL
 4102bb8:	7369004c 6c61765f 645f6469 64287665     L.is_valid_dev(d
 4102bc8:	685f7665 6c646e61 28002965 63657073     ev_handle).(spec
 4102bd8:	203d2120 6e697528 72747074 4e29745f      != (uintptr_t)N
 4102be8:	294c4c55 20262620 6e616828 20656c64     ULL) && (handle 
 4102bf8:	4e203d21 294c4c55 76656400 75663e2d     != NULL).dev->fu
 4102c08:	2d73636e 65706f3e 3d21206e 4c554e20     ncs->open != NUL
 4102c18:	7369004c 6c61765f 655f6469 7469746e     L.is_valid_entit
 4102c28:	61682879 656c646e 26262029 5f736920     y(handle) && is_
 4102c38:	696c6176 65735f64 6d5f6b65 2865646f     valid_seek_mode(
 4102c48:	65646f6d 73690029 6c61765f 655f6469     mode).is_valid_e
 4102c58:	7469746e 61682879 656c646e 26262029     ntity(handle) &&
 4102c68:	656c2820 6874676e 203d2120 4c4c554e      (length != NULL
 4102c78:	73690029 6c61765f 655f6469 7469746e     ).is_valid_entit
 4102c88:	61682879 656c646e 73690029 6c61765f     y(handle).is_val
 4102c98:	655f6469 7469746e 61682879 656c646e     id_entity(handle
 4102ca8:	26262029 75622820 72656666 203d2120     ) && (buffer != 
 4102cb8:	6e697528 72747074 4e29745f 294c4c55     (uintptr_t)NULL)
	...

0000000004102cd0 <__func__.1408>:
 4102cd0:	65657266 746e655f 00797469 00000000     free_entity.....

0000000004102ce0 <__func__.1420>:
 4102ce0:	645f6f69 6f5f7665 006e6570 00000000     io_dev_open.....

0000000004102cf0 <__func__.1457>:
 4102cf0:	735f6f69 00657a69                       io_size.

0000000004102cf8 <__func__.1484>:
 4102cf8:	635f6f69 65736f6c 00000000 00000000     io_close........

0000000004102d08 <__func__.1467>:
 4102d08:	725f6f69 00646165                       io_read.

0000000004102d10 <__func__.1426>:
 4102d10:	645f6f69 695f7665 0074696e 00000000     io_dev_init.....

0000000004102d20 <__func__.1382>:
 4102d20:	5f766564 6e65706f 00000000 00000000     dev_open........

0000000004102d30 <__func__.1440>:
 4102d30:	6f5f6f69 006e6570                       io_open.

0000000004102d38 <__func__.1441>:
 4102d38:	7672616d 5f6c6c65 735f6f69 70757465     marvell_io_setup
	...

0000000004102d50 <bl2_uuid_spec>:
 4102d50:	0becf95f 4d3e224d 9dc344a5 0a3fc781     _...M">M.D....?.

0000000004102d60 <bl31_uuid_spec>:
 4102d60:	6d08d447 4698fe4c 5029959b 005abdcb     G..mL..F..)P..Z.

0000000004102d70 <__func__.1457>:
 4102d70:	74616c70 7465675f 616d695f 735f6567     plat_get_image_s
 4102d80:	6372756f 00000065                       ource...

0000000004102d88 <policies>:
 4102d88:	0403a578 00000000 04102e90 00000000     x...............
 4102d98:	04100eec 00000000 0403a568 00000000     ........h.......
 4102da8:	04102d50 00000000 04100e8c 00000000     P-..............
 4102db8:	0403a568 00000000 04102e80 00000000     h...............
 4102dc8:	04100e8c 00000000 0403a568 00000000     ........h.......
 4102dd8:	04102d60 00000000 04100e8c 00000000     `-..............
	...
 4102e00:	0403a568 00000000 04102e70 00000000     h.......p.......
 4102e10:	04100e8c 00000000 725f6f69 6c757365     ........io_resul
 4102e20:	3d3d2074 70003020 2f74616c 7672616d     t == 0.plat/marv
 4102e30:	2f6c6c65 6d6d6f63 6d2f6e6f 65767261     ell/common/marve
 4102e40:	695f6c6c 74735f6f 6761726f 00632e65     ll_io_storage.c.
 4102e50:	67616d69 64695f65 41203c20 59415252     image_id < ARRAY
 4102e60:	5a49535f 6f702845 6963696c 00297365     _SIZE(policies).

0000000004102e70 <bl33_uuid_spec>:
 4102e70:	a7eed0d6 4bd5eafc 34998297 e4b634f2     .......K...4.4..

0000000004102e80 <scp_bl2_uuid_spec>:
 4102e80:	3dfd6697 49e8be89 a1785dae 13826040     .f.=...I.]x.@`..

0000000004102e90 <fip_block_spec>:
 4102e90:	04120000 00000000 04000000 00000000     ................

0000000004102ea0 <__func__.2274>:
 4102ea0:	5f316c62 74696e69 326c625f 6d656d5f     bl1_init_bl2_mem
 4102eb0:	79616c5f 0074756f                       _layout.

0000000004102eb8 <__func__.2280>:
 4102eb8:	5f316c62 6e69616d 00000000 00000000     bl1_main........

0000000004102ec8 <__func__.2290>:
 4102ec8:	5f316c62 64616f6c 326c625f 00000000     bl1_load_bl2....

0000000004102ed8 <bl1_svc_uid>:
 4102ed8:	fd3967d4 4d9a72cb 156775b5 4abbf4d6     .g9..r.M.ug....J
 4102ee8:	5f316c62 5f6d656d 6f79616c 21207475     bl1_mem_layout !
 4102ef8:	554e203d 62004c4c 622f316c 6d5f316c     = NULL.bl1/bl1_m
 4102f08:	2e6e6961 6c620063 656d5f32 616c5f6d     ain.c.bl2_mem_la
 4102f18:	74756f79 203d2120 4c4c554e 4c422800     yout != NULL.(BL
 4102f28:	41525f31 494c5f4d 2054494d 62203d3c     1_RAM_LIMIT <= b
 4102f38:	6d5f316c 6c5f6d65 756f7961 663e2d74     l1_mem_layout->f
 4102f48:	5f656572 65736162 7c7c2029 4c422820     ree_base) || (BL
 4102f58:	41525f31 41425f4d 3e204553 6c62203d     1_RAM_BASE >= bl
 4102f68:	656d5f31 616c5f6d 74756f79 72663e2d     1_mem_layout->fr
 4102f78:	625f6565 20657361 6c62202b 656d5f31     ee_base + bl1_me
 4102f88:	616c5f6d 74756f79 72663e2d 735f6565     m_layout->free_s
 4102f98:	29657a69 544f4e00 3a454349 6f422020     ize).NOTICE:  Bo
 4102fa8:	6e69746f 72542067 65747375 69462064     oting Trusted Fi
 4102fb8:	61776d72 000a6572 49544f4e 203a4543     rmware..NOTICE: 
 4102fc8:	314c4220 7325203a 6176000a 2026206c      BL1: %s..val & 
 4102fd8:	4c544353 5f4d5f52 00544942 206c6176     SCTLR_M_BIT.val 
 4102fe8:	43532026 5f524c54 49425f43 61760054     & SCTLR_C_BIT.va
 4102ff8:	2026206c 4c544353 5f495f52 00544942     l & SCTLR_I_BIT.
 4103008:	48434143 52575f45 42455449 5f4b4341     CACHE_WRITEBACK_
 4103018:	4e415247 20454c55 53203d3d 5f455a49     GRANULE == SIZE_
 4103028:	4d4f5246 474f4c5f 4f575f32 28534452     FROM_LOG2_WORDS(
 4103038:	296c6176 616d6900 645f6567 00637365     val).image_desc.
 4103048:	4f525245 20203a52 69614620 2064656c     ERROR:   Failed 
 4103058:	6c206f74 2064616f 20324c42 6d726966     to load BL2 firm
 4103068:	65726177 4e000a2e 4349544f 20203a45     ware...NOTICE:  
 4103078:	3a314c42 6f6f4220 676e6974 324c4220     BL1: Booting BL2
 4103088:	4f4e000a 45434954 4220203a 462d314c     ..NOTICE:  BL1-F
 4103098:	203a5557 2a2a2a2a 462a2a2a 50205557     WU: *******FWU P
 41030a8:	65636f72 53207373 74726174 2a2a6465     rocess Started**
 41030b8:	2a2a2a2a 4e000a2a 4349544f 20203a45     *****..NOTICE:  
 41030c8:	3a314c42 6f6f4220 676e6974 334c4220     BL1: Booting BL3
 41030d8:	00000a31 00000000                       1.......

00000000041030e0 <__func__.2297>:
 41030e0:	675f6d63 635f7465 65746e6f 73007478     cm_get_context.s
 41030f0:	735f6365 65746174 5f73695f 696c6176     ec_state_is_vali
 4103100:	65732864 69727563 735f7974 65746174     d(security_state
 4103110:	6c620029 6c622f31 6f635f31 7865746e     ).bl1/bl1_contex
 4103120:	676d5f74 632e746d 00000000 00000000     t_mgmt.c........

0000000004103130 <__func__.2302>:
 4103130:	735f6d63 635f7465 65746e6f 00007478     cm_set_context..

0000000004103140 <__func__.2309>:
 4103140:	5f316c62 70657270 5f657261 7478656e     bl1_prepare_next
 4103150:	616d695f 63006567 63007874 6f6d6d6f     _image.ctx.commo
 4103160:	6f632f6e 7865746e 676d5f74 632e746d     n/context_mgmt.c
 4103170:	5f707300 65646f6d 203d3d20 45444f4d     .sp_mode == MODE
 4103180:	5f50535f 00304c45 6c636e69 2f656475     _SP_EL0.include/
 4103190:	6d6d6f63 632f6e6f 65746e6f 6d5f7478     common/context_m
 41031a0:	2e746d67 31280068 203c3c20 5f746962     gmt.h.(1 << bit_
 41031b0:	29736f70 53202620 565f5243 44494c41     pos) & SCR_VALID
 41031c0:	5449425f 53414d5f 6176004b 2065756c     _BIT_MASK.value 
 41031d0:	31203d3c 00000000                       <= 1....

00000000041031d8 <__func__.2361>:
 41031d8:	695f6d63 5f74696e 746e6f63 5f747865     cm_init_context_
 41031e8:	6d6d6f63 00006e6f                       common..

00000000041031f0 <__func__.1987>:
 41031f0:	735f6d63 6e5f7465 5f747865 746e6f63     cm_set_next_cont
 4103200:	00747865 00000000                       ext.....

0000000004103208 <__func__.2378>:
 4103208:	705f6d63 61706572 655f6572 655f336c     cm_prepare_el3_e
 4103218:	00746978 00000000                       xit.....

0000000004103220 <__func__.2345>:
 4103220:	6f6f6863 6d5f6573 705f6d65 6600736f     choose_mem_pos.f
 4103230:	5f656572 65736162 203d2120 4c4c554e     ree_base != NULL
 4103240:	6d6f6300 2f6e6f6d 635f6c62 6f6d6d6f     .common/bl_commo
 4103250:	00632e6e 65657266 7a69735f 3d212065     n.c.free_size !=
 4103260:	4c554e20 7573004c 6d656d62 6174735f      NULL.submem_sta
 4103270:	3c207472 7573203d 6d656d62 646e655f     rt <= submem_end
 4103280:	5f736900 5f6d656d 65657266 72662a28     .is_mem_free(*fr
 4103290:	625f6565 2c657361 72662a20 735f6565     ee_base, *free_s
 41032a0:	2c657a69 64646120 73202c72 29657a69     ize, addr, size)
 41032b0:	616d6900 645f6567 20617461 4e203d21     .image_data != N
 41032c0:	004c4c55 67616d69 61645f65 3e2d6174     ULL.image_data->
 41032d0:	65762e68 6f697372 3d3e206e 52455620     h.version >= VER
 41032e0:	4e4f4953 0000315f                       SION_1..

00000000041032e8 <__func__.2355>:
 41032e8:	65736572 5f657672 006d656d 00000000     reserve_mem.....

00000000041032f8 <__func__.2382>:
 41032f8:	64616f6c 616d695f 45006567 524f5252     load_image.ERROR
 4103308:	2020203a 524f4241 41000a54 52455353     :   ABORT..ASSER
 4103318:	25203a54 253c2073 3a203e64 0a732520     T: %s <%d> : %s.
 4103328:	52524500 203a524f 58452020 000a5449     .ERROR:   EXIT..
 4103338:	746d6628 6c756e20 000a296c 6c756e28     (fmt null)..(nul
 4103348:	0000296c 00000000                       l)......

0000000004103350 <plat_arm_mmap>:
 4103350:	04000000 00000000 04000000 00000000     ................
 4103360:	00001000 00000000 00000003 00000000     ................
 4103370:	d0000000 00000000 d0000000 00000000     ................
 4103380:	10000000 00000000 00000002 00000000     ................
	...

00000000041033b0 <__func__.1999>:
 41033b0:	74696e69 616c785f 6e6f6974 6261745f     init_xlation_tab
 41033c0:	0000656c 00000000                       le......

00000000041033c8 <__func__.2029>:
 41033c8:	62616e65 6d5f656c 655f756d 0000336c     enable_mmu_el3..

00000000041033d8 <__func__.2013>:
 41033d8:	74696e69 616c785f 61745f74 73656c62     init_xlat_tables
	...

00000000041033f0 <__func__.2009>:
 41033f0:	636c6163 7968705f 61636973 64615f6c     calc_physical_ad
 4103400:	735f7264 5f657a69 73746962 76656c00     dr_size_bits.lev
 4103410:	3c206c65 0033203d 2f62696c 63726161     el <= 3.lib/aarc
 4103420:	2f343668 74616c78 6261745f 2e73656c     h64/xlat_tables.
 4103430:	656e0063 785f7478 2074616c 4d203d3c     c.next_xlat <= M
 4103440:	585f5841 5f54414c 4c424154 49005345     AX_XLAT_TABLES.I
 4103450:	41505f53 415f4547 4e47494c 62284445     S_PAGE_ALIGNED(b
 4103460:	5f657361 00296170 505f5349 5f454741     ase_pa).IS_PAGE_
 4103470:	47494c41 2844454e 65736162 2961765f     ALIGNED(base_va)
 4103480:	5f534900 45474150 494c415f 44454e47     .IS_PAGE_ALIGNED
 4103490:	7a697328 6d002965 616c5f6d 3e2d7473     (size).mm_last->
 41034a0:	657a6973 203d3d20 6d280030 615f7861     size == 0.(max_a
 41034b0:	20726464 44412026 4d5f5244 5f4b5341     ddr & ADDR_MASK_
 41034c0:	545f3834 33365f4f 3d3d2029 6d003020     48_TO_63) == 0.m
 41034d0:	765f7861 203c2061 52444441 4150535f     ax_va < ADDR_SPA
 41034e0:	535f4543 00455a49 495f5349 4c455f4e     CE_SIZE.IS_IN_EL
 41034f0:	00293128 61657228 63735f64 5f726c74     (1).(read_sctlr_
 4103500:	28316c65 20262029 4c544353 5f4d5f52     el1() & SCTLR_M_
 4103510:	29544942 203d3d20 53490030 5f4e495f     BIT) == 0.IS_IN_
 4103520:	33284c45 72280029 5f646165 6c746373     EL(3).(read_sctl
 4103530:	6c655f72 20292833 43532026 5f524c54     r_el3() & SCTLR_
 4103540:	49425f4d 3d202954 0030203d 00000000     M_BIT) == 0.....

0000000004103550 <__func__.1966>:
 4103550:	70616d6d 6464615f 6765725f 006e6f69     mmap_add_region.
 4103560:	2f62696c 73757063 7261612f 34366863     lib/cpus/aarch64
 4103570:	7570632f 6c65685f 73726570 4100532e              /cpu_helpers.S.

000000000410357f <assert_msg1>:
 410357f:	41          	.byte	0x41
 4103580:	52455353 	.word	0x52455353
 4103584:	46203a54 	.word	0x46203a54
 4103588:	20656c69 	.word	0x20656c69
	...

000000000410358d <assert_msg2>:
 410358d:	20          	.byte	0x20
 410358e:	694c      	.short	0x694c
 4103590:	0020656e 	.word	0x0020656e
 4103594:	2f62696c 	.word	0x2f62696c
 4103598:	63726161 	.word	0x63726161
 410359c:	2f343668 	.word	0x2f343668
 41035a0:	6373696d 	.word	0x6373696d
 41035a4:	6c65685f 	.word	0x6c65685f
 41035a8:	73726570 	.word	0x73726570
 41035ac:	0000532e 	.word	0x0000532e

00000000041035b0 <__CPU_OPS_START__>:
 41035b0:	410fd030 	.word	0x410fd030
 41035b4:	00000000 	.word	0x00000000
 41035b8:	041022e8 	.word	0x041022e8
 41035bc:	00000000 	.word	0x00000000

00000000041035c0 <__CPU_OPS_END__>:
	...

0000000004103800 <bl1_exceptions>:
 4103800:	d2800000 	mov	x0, #0x0                   	// #0
 4103804:	97fffbc3 	bl	4102710 <plat_report_exception>
 4103808:	17fffffe 	b	4103800 <bl1_exceptions>
 410380c:	d503201f 	nop
 4103810:	d503201f 	nop
 4103814:	d503201f 	nop
 4103818:	d503201f 	nop
 410381c:	d503201f 	nop
 4103820:	d503201f 	nop
 4103824:	d503201f 	nop
 4103828:	d503201f 	nop
 410382c:	d503201f 	nop
 4103830:	d503201f 	nop
 4103834:	d503201f 	nop
 4103838:	d503201f 	nop
 410383c:	d503201f 	nop
 4103840:	d503201f 	nop
 4103844:	d503201f 	nop
 4103848:	d503201f 	nop
 410384c:	d503201f 	nop
 4103850:	d503201f 	nop
 4103854:	d503201f 	nop
 4103858:	d503201f 	nop
 410385c:	d503201f 	nop
 4103860:	d503201f 	nop
 4103864:	d503201f 	nop
 4103868:	d503201f 	nop
 410386c:	d503201f 	nop
 4103870:	d503201f 	nop
 4103874:	d503201f 	nop
 4103878:	d503201f 	nop
 410387c:	d503201f 	nop

0000000004103880 <IrqSP0>:
 4103880:	d2800020 	mov	x0, #0x1                   	// #1
 4103884:	97fffba3 	bl	4102710 <plat_report_exception>
 4103888:	17fffffe 	b	4103880 <IrqSP0>
 410388c:	d503201f 	nop
 4103890:	d503201f 	nop
 4103894:	d503201f 	nop
 4103898:	d503201f 	nop
 410389c:	d503201f 	nop
 41038a0:	d503201f 	nop
 41038a4:	d503201f 	nop
 41038a8:	d503201f 	nop
 41038ac:	d503201f 	nop
 41038b0:	d503201f 	nop
 41038b4:	d503201f 	nop
 41038b8:	d503201f 	nop
 41038bc:	d503201f 	nop
 41038c0:	d503201f 	nop
 41038c4:	d503201f 	nop
 41038c8:	d503201f 	nop
 41038cc:	d503201f 	nop
 41038d0:	d503201f 	nop
 41038d4:	d503201f 	nop
 41038d8:	d503201f 	nop
 41038dc:	d503201f 	nop
 41038e0:	d503201f 	nop
 41038e4:	d503201f 	nop
 41038e8:	d503201f 	nop
 41038ec:	d503201f 	nop
 41038f0:	d503201f 	nop
 41038f4:	d503201f 	nop
 41038f8:	d503201f 	nop
 41038fc:	d503201f 	nop

0000000004103900 <FiqSP0>:
 4103900:	d2800040 	mov	x0, #0x2                   	// #2
 4103904:	97fffb83 	bl	4102710 <plat_report_exception>
 4103908:	17fffffe 	b	4103900 <FiqSP0>
 410390c:	d503201f 	nop
 4103910:	d503201f 	nop
 4103914:	d503201f 	nop
 4103918:	d503201f 	nop
 410391c:	d503201f 	nop
 4103920:	d503201f 	nop
 4103924:	d503201f 	nop
 4103928:	d503201f 	nop
 410392c:	d503201f 	nop
 4103930:	d503201f 	nop
 4103934:	d503201f 	nop
 4103938:	d503201f 	nop
 410393c:	d503201f 	nop
 4103940:	d503201f 	nop
 4103944:	d503201f 	nop
 4103948:	d503201f 	nop
 410394c:	d503201f 	nop
 4103950:	d503201f 	nop
 4103954:	d503201f 	nop
 4103958:	d503201f 	nop
 410395c:	d503201f 	nop
 4103960:	d503201f 	nop
 4103964:	d503201f 	nop
 4103968:	d503201f 	nop
 410396c:	d503201f 	nop
 4103970:	d503201f 	nop
 4103974:	d503201f 	nop
 4103978:	d503201f 	nop
 410397c:	d503201f 	nop

0000000004103980 <SErrorSP0>:
 4103980:	d2800060 	mov	x0, #0x3                   	// #3
 4103984:	97fffb63 	bl	4102710 <plat_report_exception>
 4103988:	17fffffe 	b	4103980 <SErrorSP0>
 410398c:	d503201f 	nop
 4103990:	d503201f 	nop
 4103994:	d503201f 	nop
 4103998:	d503201f 	nop
 410399c:	d503201f 	nop
 41039a0:	d503201f 	nop
 41039a4:	d503201f 	nop
 41039a8:	d503201f 	nop
 41039ac:	d503201f 	nop
 41039b0:	d503201f 	nop
 41039b4:	d503201f 	nop
 41039b8:	d503201f 	nop
 41039bc:	d503201f 	nop
 41039c0:	d503201f 	nop
 41039c4:	d503201f 	nop
 41039c8:	d503201f 	nop
 41039cc:	d503201f 	nop
 41039d0:	d503201f 	nop
 41039d4:	d503201f 	nop
 41039d8:	d503201f 	nop
 41039dc:	d503201f 	nop
 41039e0:	d503201f 	nop
 41039e4:	d503201f 	nop
 41039e8:	d503201f 	nop
 41039ec:	d503201f 	nop
 41039f0:	d503201f 	nop
 41039f4:	d503201f 	nop
 41039f8:	d503201f 	nop
 41039fc:	d503201f 	nop

0000000004103a00 <SynchronousExceptionSPx>:
 4103a00:	d2800080 	mov	x0, #0x4                   	// #4
 4103a04:	97fffb43 	bl	4102710 <plat_report_exception>
 4103a08:	17fffffe 	b	4103a00 <SynchronousExceptionSPx>
 4103a0c:	d503201f 	nop
 4103a10:	d503201f 	nop
 4103a14:	d503201f 	nop
 4103a18:	d503201f 	nop
 4103a1c:	d503201f 	nop
 4103a20:	d503201f 	nop
 4103a24:	d503201f 	nop
 4103a28:	d503201f 	nop
 4103a2c:	d503201f 	nop
 4103a30:	d503201f 	nop
 4103a34:	d503201f 	nop
 4103a38:	d503201f 	nop
 4103a3c:	d503201f 	nop
 4103a40:	d503201f 	nop
 4103a44:	d503201f 	nop
 4103a48:	d503201f 	nop
 4103a4c:	d503201f 	nop
 4103a50:	d503201f 	nop
 4103a54:	d503201f 	nop
 4103a58:	d503201f 	nop
 4103a5c:	d503201f 	nop
 4103a60:	d503201f 	nop
 4103a64:	d503201f 	nop
 4103a68:	d503201f 	nop
 4103a6c:	d503201f 	nop
 4103a70:	d503201f 	nop
 4103a74:	d503201f 	nop
 4103a78:	d503201f 	nop
 4103a7c:	d503201f 	nop

0000000004103a80 <IrqSPx>:
 4103a80:	d28000a0 	mov	x0, #0x5                   	// #5
 4103a84:	97fffb23 	bl	4102710 <plat_report_exception>
 4103a88:	17fffffe 	b	4103a80 <IrqSPx>
 4103a8c:	d503201f 	nop
 4103a90:	d503201f 	nop
 4103a94:	d503201f 	nop
 4103a98:	d503201f 	nop
 4103a9c:	d503201f 	nop
 4103aa0:	d503201f 	nop
 4103aa4:	d503201f 	nop
 4103aa8:	d503201f 	nop
 4103aac:	d503201f 	nop
 4103ab0:	d503201f 	nop
 4103ab4:	d503201f 	nop
 4103ab8:	d503201f 	nop
 4103abc:	d503201f 	nop
 4103ac0:	d503201f 	nop
 4103ac4:	d503201f 	nop
 4103ac8:	d503201f 	nop
 4103acc:	d503201f 	nop
 4103ad0:	d503201f 	nop
 4103ad4:	d503201f 	nop
 4103ad8:	d503201f 	nop
 4103adc:	d503201f 	nop
 4103ae0:	d503201f 	nop
 4103ae4:	d503201f 	nop
 4103ae8:	d503201f 	nop
 4103aec:	d503201f 	nop
 4103af0:	d503201f 	nop
 4103af4:	d503201f 	nop
 4103af8:	d503201f 	nop
 4103afc:	d503201f 	nop

0000000004103b00 <FiqSPx>:
 4103b00:	d28000c0 	mov	x0, #0x6                   	// #6
 4103b04:	97fffb03 	bl	4102710 <plat_report_exception>
 4103b08:	17fffffe 	b	4103b00 <FiqSPx>
 4103b0c:	d503201f 	nop
 4103b10:	d503201f 	nop
 4103b14:	d503201f 	nop
 4103b18:	d503201f 	nop
 4103b1c:	d503201f 	nop
 4103b20:	d503201f 	nop
 4103b24:	d503201f 	nop
 4103b28:	d503201f 	nop
 4103b2c:	d503201f 	nop
 4103b30:	d503201f 	nop
 4103b34:	d503201f 	nop
 4103b38:	d503201f 	nop
 4103b3c:	d503201f 	nop
 4103b40:	d503201f 	nop
 4103b44:	d503201f 	nop
 4103b48:	d503201f 	nop
 4103b4c:	d503201f 	nop
 4103b50:	d503201f 	nop
 4103b54:	d503201f 	nop
 4103b58:	d503201f 	nop
 4103b5c:	d503201f 	nop
 4103b60:	d503201f 	nop
 4103b64:	d503201f 	nop
 4103b68:	d503201f 	nop
 4103b6c:	d503201f 	nop
 4103b70:	d503201f 	nop
 4103b74:	d503201f 	nop
 4103b78:	d503201f 	nop
 4103b7c:	d503201f 	nop

0000000004103b80 <SErrorSPx>:
 4103b80:	d28000e0 	mov	x0, #0x7                   	// #7
 4103b84:	97fffae3 	bl	4102710 <plat_report_exception>
 4103b88:	17fffffe 	b	4103b80 <SErrorSPx>
 4103b8c:	d503201f 	nop
 4103b90:	d503201f 	nop
 4103b94:	d503201f 	nop
 4103b98:	d503201f 	nop
 4103b9c:	d503201f 	nop
 4103ba0:	d503201f 	nop
 4103ba4:	d503201f 	nop
 4103ba8:	d503201f 	nop
 4103bac:	d503201f 	nop
 4103bb0:	d503201f 	nop
 4103bb4:	d503201f 	nop
 4103bb8:	d503201f 	nop
 4103bbc:	d503201f 	nop
 4103bc0:	d503201f 	nop
 4103bc4:	d503201f 	nop
 4103bc8:	d503201f 	nop
 4103bcc:	d503201f 	nop
 4103bd0:	d503201f 	nop
 4103bd4:	d503201f 	nop
 4103bd8:	d503201f 	nop
 4103bdc:	d503201f 	nop
 4103be0:	d503201f 	nop
 4103be4:	d503201f 	nop
 4103be8:	d503201f 	nop
 4103bec:	d503201f 	nop
 4103bf0:	d503201f 	nop
 4103bf4:	d503201f 	nop
 4103bf8:	d503201f 	nop
 4103bfc:	d503201f 	nop

0000000004103c00 <SynchronousExceptionA64>:
 4103c00:	d50344ff 	msr	daifclr, #0x4
 4103c04:	f9007bfe 	str	x30, [sp,#240]
 4103c08:	d53e521e 	mrs	x30, esr_el3
 4103c0c:	d35a7fde 	ubfx	x30, x30, #26, #6
 4103c10:	f1005fdf 	cmp	x30, #0x17
 4103c14:	54ff3c41 	b.ne	410239c <unexpected_sync_exception>
 4103c18:	17fff9c6 	b	4102330 <smc_handler64>
 4103c1c:	d503201f 	nop
 4103c20:	d503201f 	nop
 4103c24:	d503201f 	nop
 4103c28:	d503201f 	nop
 4103c2c:	d503201f 	nop
 4103c30:	d503201f 	nop
 4103c34:	d503201f 	nop
 4103c38:	d503201f 	nop
 4103c3c:	d503201f 	nop
 4103c40:	d503201f 	nop
 4103c44:	d503201f 	nop
 4103c48:	d503201f 	nop
 4103c4c:	d503201f 	nop
 4103c50:	d503201f 	nop
 4103c54:	d503201f 	nop
 4103c58:	d503201f 	nop
 4103c5c:	d503201f 	nop
 4103c60:	d503201f 	nop
 4103c64:	d503201f 	nop
 4103c68:	d503201f 	nop
 4103c6c:	d503201f 	nop
 4103c70:	d503201f 	nop
 4103c74:	d503201f 	nop
 4103c78:	d503201f 	nop
 4103c7c:	d503201f 	nop

0000000004103c80 <IrqA64>:
 4103c80:	d2800120 	mov	x0, #0x9                   	// #9
 4103c84:	97fffaa3 	bl	4102710 <plat_report_exception>
 4103c88:	17fffffe 	b	4103c80 <IrqA64>
 4103c8c:	d503201f 	nop
 4103c90:	d503201f 	nop
 4103c94:	d503201f 	nop
 4103c98:	d503201f 	nop
 4103c9c:	d503201f 	nop
 4103ca0:	d503201f 	nop
 4103ca4:	d503201f 	nop
 4103ca8:	d503201f 	nop
 4103cac:	d503201f 	nop
 4103cb0:	d503201f 	nop
 4103cb4:	d503201f 	nop
 4103cb8:	d503201f 	nop
 4103cbc:	d503201f 	nop
 4103cc0:	d503201f 	nop
 4103cc4:	d503201f 	nop
 4103cc8:	d503201f 	nop
 4103ccc:	d503201f 	nop
 4103cd0:	d503201f 	nop
 4103cd4:	d503201f 	nop
 4103cd8:	d503201f 	nop
 4103cdc:	d503201f 	nop
 4103ce0:	d503201f 	nop
 4103ce4:	d503201f 	nop
 4103ce8:	d503201f 	nop
 4103cec:	d503201f 	nop
 4103cf0:	d503201f 	nop
 4103cf4:	d503201f 	nop
 4103cf8:	d503201f 	nop
 4103cfc:	d503201f 	nop

0000000004103d00 <FiqA64>:
 4103d00:	d2800140 	mov	x0, #0xa                   	// #10
 4103d04:	97fffa83 	bl	4102710 <plat_report_exception>
 4103d08:	17fffffe 	b	4103d00 <FiqA64>
 4103d0c:	d503201f 	nop
 4103d10:	d503201f 	nop
 4103d14:	d503201f 	nop
 4103d18:	d503201f 	nop
 4103d1c:	d503201f 	nop
 4103d20:	d503201f 	nop
 4103d24:	d503201f 	nop
 4103d28:	d503201f 	nop
 4103d2c:	d503201f 	nop
 4103d30:	d503201f 	nop
 4103d34:	d503201f 	nop
 4103d38:	d503201f 	nop
 4103d3c:	d503201f 	nop
 4103d40:	d503201f 	nop
 4103d44:	d503201f 	nop
 4103d48:	d503201f 	nop
 4103d4c:	d503201f 	nop
 4103d50:	d503201f 	nop
 4103d54:	d503201f 	nop
 4103d58:	d503201f 	nop
 4103d5c:	d503201f 	nop
 4103d60:	d503201f 	nop
 4103d64:	d503201f 	nop
 4103d68:	d503201f 	nop
 4103d6c:	d503201f 	nop
 4103d70:	d503201f 	nop
 4103d74:	d503201f 	nop
 4103d78:	d503201f 	nop
 4103d7c:	d503201f 	nop

0000000004103d80 <SErrorA64>:
 4103d80:	d2800160 	mov	x0, #0xb                   	// #11
 4103d84:	97fffa63 	bl	4102710 <plat_report_exception>
 4103d88:	17fffffe 	b	4103d80 <SErrorA64>
 4103d8c:	d503201f 	nop
 4103d90:	d503201f 	nop
 4103d94:	d503201f 	nop
 4103d98:	d503201f 	nop
 4103d9c:	d503201f 	nop
 4103da0:	d503201f 	nop
 4103da4:	d503201f 	nop
 4103da8:	d503201f 	nop
 4103dac:	d503201f 	nop
 4103db0:	d503201f 	nop
 4103db4:	d503201f 	nop
 4103db8:	d503201f 	nop
 4103dbc:	d503201f 	nop
 4103dc0:	d503201f 	nop
 4103dc4:	d503201f 	nop
 4103dc8:	d503201f 	nop
 4103dcc:	d503201f 	nop
 4103dd0:	d503201f 	nop
 4103dd4:	d503201f 	nop
 4103dd8:	d503201f 	nop
 4103ddc:	d503201f 	nop
 4103de0:	d503201f 	nop
 4103de4:	d503201f 	nop
 4103de8:	d503201f 	nop
 4103dec:	d503201f 	nop
 4103df0:	d503201f 	nop
 4103df4:	d503201f 	nop
 4103df8:	d503201f 	nop
 4103dfc:	d503201f 	nop

0000000004103e00 <SynchronousExceptionA32>:
 4103e00:	d2800180 	mov	x0, #0xc                   	// #12
 4103e04:	97fffa43 	bl	4102710 <plat_report_exception>
 4103e08:	17fffffe 	b	4103e00 <SynchronousExceptionA32>
 4103e0c:	d503201f 	nop
 4103e10:	d503201f 	nop
 4103e14:	d503201f 	nop
 4103e18:	d503201f 	nop
 4103e1c:	d503201f 	nop
 4103e20:	d503201f 	nop
 4103e24:	d503201f 	nop
 4103e28:	d503201f 	nop
 4103e2c:	d503201f 	nop
 4103e30:	d503201f 	nop
 4103e34:	d503201f 	nop
 4103e38:	d503201f 	nop
 4103e3c:	d503201f 	nop
 4103e40:	d503201f 	nop
 4103e44:	d503201f 	nop
 4103e48:	d503201f 	nop
 4103e4c:	d503201f 	nop
 4103e50:	d503201f 	nop
 4103e54:	d503201f 	nop
 4103e58:	d503201f 	nop
 4103e5c:	d503201f 	nop
 4103e60:	d503201f 	nop
 4103e64:	d503201f 	nop
 4103e68:	d503201f 	nop
 4103e6c:	d503201f 	nop
 4103e70:	d503201f 	nop
 4103e74:	d503201f 	nop
 4103e78:	d503201f 	nop
 4103e7c:	d503201f 	nop

0000000004103e80 <IrqA32>:
 4103e80:	d28001a0 	mov	x0, #0xd                   	// #13
 4103e84:	97fffa23 	bl	4102710 <plat_report_exception>
 4103e88:	17fffffe 	b	4103e80 <IrqA32>
 4103e8c:	d503201f 	nop
 4103e90:	d503201f 	nop
 4103e94:	d503201f 	nop
 4103e98:	d503201f 	nop
 4103e9c:	d503201f 	nop
 4103ea0:	d503201f 	nop
 4103ea4:	d503201f 	nop
 4103ea8:	d503201f 	nop
 4103eac:	d503201f 	nop
 4103eb0:	d503201f 	nop
 4103eb4:	d503201f 	nop
 4103eb8:	d503201f 	nop
 4103ebc:	d503201f 	nop
 4103ec0:	d503201f 	nop
 4103ec4:	d503201f 	nop
 4103ec8:	d503201f 	nop
 4103ecc:	d503201f 	nop
 4103ed0:	d503201f 	nop
 4103ed4:	d503201f 	nop
 4103ed8:	d503201f 	nop
 4103edc:	d503201f 	nop
 4103ee0:	d503201f 	nop
 4103ee4:	d503201f 	nop
 4103ee8:	d503201f 	nop
 4103eec:	d503201f 	nop
 4103ef0:	d503201f 	nop
 4103ef4:	d503201f 	nop
 4103ef8:	d503201f 	nop
 4103efc:	d503201f 	nop

0000000004103f00 <FiqA32>:
 4103f00:	d28001c0 	mov	x0, #0xe                   	// #14
 4103f04:	97fffa03 	bl	4102710 <plat_report_exception>
 4103f08:	17fffffe 	b	4103f00 <FiqA32>
 4103f0c:	d503201f 	nop
 4103f10:	d503201f 	nop
 4103f14:	d503201f 	nop
 4103f18:	d503201f 	nop
 4103f1c:	d503201f 	nop
 4103f20:	d503201f 	nop
 4103f24:	d503201f 	nop
 4103f28:	d503201f 	nop
 4103f2c:	d503201f 	nop
 4103f30:	d503201f 	nop
 4103f34:	d503201f 	nop
 4103f38:	d503201f 	nop
 4103f3c:	d503201f 	nop
 4103f40:	d503201f 	nop
 4103f44:	d503201f 	nop
 4103f48:	d503201f 	nop
 4103f4c:	d503201f 	nop
 4103f50:	d503201f 	nop
 4103f54:	d503201f 	nop
 4103f58:	d503201f 	nop
 4103f5c:	d503201f 	nop
 4103f60:	d503201f 	nop
 4103f64:	d503201f 	nop
 4103f68:	d503201f 	nop
 4103f6c:	d503201f 	nop
 4103f70:	d503201f 	nop
 4103f74:	d503201f 	nop
 4103f78:	d503201f 	nop
 4103f7c:	d503201f 	nop

0000000004103f80 <SErrorA32>:
 4103f80:	d28001e0 	mov	x0, #0xf                   	// #15
 4103f84:	97fff9e3 	bl	4102710 <plat_report_exception>
 4103f88:	17fffffe 	b	4103f80 <SErrorA32>
